Archive member included because of file (symbol)

/usr/local/ps2dev/gsKit/lib/libgskit.a(gsCore.o)
                              obj/renderman.o (gsKit_vram_clear)
/usr/local/ps2dev/gsKit/lib/libgskit.a(gsInit.o)
                              obj/renderman.o (gsKit_init_screen)
/usr/local/ps2dev/gsKit/lib/libgskit.a(gsMisc.o)
                              obj/renderman.o (gsKit_setup_tbw)
/usr/local/ps2dev/gsKit/lib/libgskit.a(gsPrimitive.o)
                              obj/renderman.o (gsKit_prim_line_3d)
/usr/local/ps2dev/gsKit/lib/libgskit.a(gsTexture.o)
                              obj/textures.o (gsKit_texture_size_ee)
/usr/local/ps2dev/gsKit/lib/libdmakit.a(dmaCore.o)
                              /usr/local/ps2dev/gsKit/lib/libgskit.a(gsCore.o) (dmaKit_wait_fast)
/usr/local/ps2dev/gsKit/lib/libdmakit.a(dmaInit.o)
                              obj/renderman.o (dmaKit_init)
/usr/local/ps2dev/ps2sdk/ee/lib/libpoweroff.a(poweroff.o)
                              obj/system.o (poweroffInit)
/usr/local/ps2dev/ps2sdk/ee/lib/libfileXio.a(fileXio_rpc.o)
                              obj/system.o (fileXioInit)
/usr/local/ps2dev/ps2sdk/ee/lib/libpatches.a(patch_enable_lmb.o)
                              obj/system.o (sbv_patch_enable_lmb)
/usr/local/ps2dev/ps2sdk/ee/lib/libpatches.a(patch_disable_prefix_check.o)
                              obj/system.o (sbv_patch_disable_prefix_check)
/usr/local/ps2dev/ps2sdk/ee/lib/libpatches.a(patch_fioremove.o)
                              obj/system.o (sbv_patch_fioremove)
/usr/local/ps2dev/ps2sdk/ee/lib/libpatches.a(smem.o)
                              /usr/local/ps2dev/ps2sdk/ee/lib/libpatches.a(patch_enable_lmb.o) (smem_read)
/usr/local/ps2dev/ps2sdk/ee/lib/libpatches.a(smod.o)
                              /usr/local/ps2dev/ps2sdk/ee/lib/libpatches.a(patch_enable_lmb.o) (smod_get_mod_by_name)
/usr/local/ps2dev/ps2sdk/ee/lib/libpatches.a(slib.o)
                              /usr/local/ps2dev/ps2sdk/ee/lib/libpatches.a(patch_enable_lmb.o) (_slib_cur_exp_lib_list)
/usr/local/ps2dev/ps2sdk/ee/lib/libpad.a(libpad.o)
                              obj/pad.o (padReset)
/usr/local/ps2dev/ps2sdk/ports/lib/libjpeg.a(libjpg.o)
                              obj/textures.o (jpgClose)
/usr/local/ps2dev/ps2sdk/ports/lib/libjpeg.a(jcapimin.o)
                              /usr/local/ps2dev/ps2sdk/ports/lib/libjpeg.a(libjpg.o) (jpeg_CreateCompress)
/usr/local/ps2dev/ps2sdk/ports/lib/libjpeg.a(jcapistd.o)
                              /usr/local/ps2dev/ps2sdk/ports/lib/libjpeg.a(libjpg.o) (jpeg_start_compress)
/usr/local/ps2dev/ps2sdk/ports/lib/libjpeg.a(jcparam.o)
                              /usr/local/ps2dev/ps2sdk/ports/lib/libjpeg.a(libjpg.o) (jpeg_set_quality)
/usr/local/ps2dev/ps2sdk/ports/lib/libjpeg.a(jcinit.o)
                              /usr/local/ps2dev/ps2sdk/ports/lib/libjpeg.a(jcapistd.o) (jinit_compress_master)
/usr/local/ps2dev/ps2sdk/ports/lib/libjpeg.a(jcmaster.o)
                              /usr/local/ps2dev/ps2sdk/ports/lib/libjpeg.a(jcinit.o) (jinit_c_master_control)
/usr/local/ps2dev/ps2sdk/ports/lib/libjpeg.a(jcmarker.o)
                              /usr/local/ps2dev/ps2sdk/ports/lib/libjpeg.a(jcapimin.o) (jinit_marker_writer)
/usr/local/ps2dev/ps2sdk/ports/lib/libjpeg.a(jcmainct.o)
                              /usr/local/ps2dev/ps2sdk/ports/lib/libjpeg.a(jcinit.o) (jinit_c_main_controller)
/usr/local/ps2dev/ps2sdk/ports/lib/libjpeg.a(jcprepct.o)
                              /usr/local/ps2dev/ps2sdk/ports/lib/libjpeg.a(jcinit.o) (jinit_c_prep_controller)
/usr/local/ps2dev/ps2sdk/ports/lib/libjpeg.a(jccoefct.o)
                              /usr/local/ps2dev/ps2sdk/ports/lib/libjpeg.a(jcinit.o) (jinit_c_coef_controller)
/usr/local/ps2dev/ps2sdk/ports/lib/libjpeg.a(jccolor.o)
                              /usr/local/ps2dev/ps2sdk/ports/lib/libjpeg.a(jcinit.o) (jinit_color_converter)
/usr/local/ps2dev/ps2sdk/ports/lib/libjpeg.a(jcsample.o)
                              /usr/local/ps2dev/ps2sdk/ports/lib/libjpeg.a(jcinit.o) (jinit_downsampler)
/usr/local/ps2dev/ps2sdk/ports/lib/libjpeg.a(jchuff.o)
                              /usr/local/ps2dev/ps2sdk/ports/lib/libjpeg.a(jcinit.o) (jinit_huff_encoder)
/usr/local/ps2dev/ps2sdk/ports/lib/libjpeg.a(jcphuff.o)
                              /usr/local/ps2dev/ps2sdk/ports/lib/libjpeg.a(jcinit.o) (jinit_phuff_encoder)
/usr/local/ps2dev/ps2sdk/ports/lib/libjpeg.a(jcdctmgr.o)
                              /usr/local/ps2dev/ps2sdk/ports/lib/libjpeg.a(jcinit.o) (jinit_forward_dct)
/usr/local/ps2dev/ps2sdk/ports/lib/libjpeg.a(jfdctfst.o)
                              /usr/local/ps2dev/ps2sdk/ports/lib/libjpeg.a(jcdctmgr.o) (jpeg_fdct_ifast)
/usr/local/ps2dev/ps2sdk/ports/lib/libjpeg.a(jfdctflt.o)
                              /usr/local/ps2dev/ps2sdk/ports/lib/libjpeg.a(jcdctmgr.o) (jpeg_fdct_float)
/usr/local/ps2dev/ps2sdk/ports/lib/libjpeg.a(jfdctint.o)
                              /usr/local/ps2dev/ps2sdk/ports/lib/libjpeg.a(jcdctmgr.o) (jpeg_fdct_islow)
/usr/local/ps2dev/ps2sdk/ports/lib/libjpeg.a(jdapimin.o)
                              /usr/local/ps2dev/ps2sdk/ports/lib/libjpeg.a(libjpg.o) (jpeg_CreateDecompress)
/usr/local/ps2dev/ps2sdk/ports/lib/libjpeg.a(jdapistd.o)
                              /usr/local/ps2dev/ps2sdk/ports/lib/libjpeg.a(libjpg.o) (jpeg_start_decompress)
/usr/local/ps2dev/ps2sdk/ports/lib/libjpeg.a(jdatasrc.o)
                              /usr/local/ps2dev/ps2sdk/ports/lib/libjpeg.a(libjpg.o) (jpeg_stdio_src)
/usr/local/ps2dev/ps2sdk/ports/lib/libjpeg.a(jdmaster.o)
                              /usr/local/ps2dev/ps2sdk/ports/lib/libjpeg.a(libjpg.o) (jpeg_calc_output_dimensions)
/usr/local/ps2dev/ps2sdk/ports/lib/libjpeg.a(jdinput.o)
                              /usr/local/ps2dev/ps2sdk/ports/lib/libjpeg.a(jdapimin.o) (jinit_input_controller)
/usr/local/ps2dev/ps2sdk/ports/lib/libjpeg.a(jdmarker.o)
                              /usr/local/ps2dev/ps2sdk/ports/lib/libjpeg.a(jdatasrc.o) (jpeg_resync_to_restart)
/usr/local/ps2dev/ps2sdk/ports/lib/libjpeg.a(jdhuff.o)
                              /usr/local/ps2dev/ps2sdk/ports/lib/libjpeg.a(jdmaster.o) (jinit_huff_decoder)
/usr/local/ps2dev/ps2sdk/ports/lib/libjpeg.a(jdphuff.o)
                              /usr/local/ps2dev/ps2sdk/ports/lib/libjpeg.a(jdmaster.o) (jinit_phuff_decoder)
/usr/local/ps2dev/ps2sdk/ports/lib/libjpeg.a(jdmainct.o)
                              /usr/local/ps2dev/ps2sdk/ports/lib/libjpeg.a(jdmaster.o) (jinit_d_main_controller)
/usr/local/ps2dev/ps2sdk/ports/lib/libjpeg.a(jdcoefct.o)
                              /usr/local/ps2dev/ps2sdk/ports/lib/libjpeg.a(jdmaster.o) (jinit_d_coef_controller)
/usr/local/ps2dev/ps2sdk/ports/lib/libjpeg.a(jdpostct.o)
                              /usr/local/ps2dev/ps2sdk/ports/lib/libjpeg.a(jdmaster.o) (jinit_d_post_controller)
/usr/local/ps2dev/ps2sdk/ports/lib/libjpeg.a(jddctmgr.o)
                              /usr/local/ps2dev/ps2sdk/ports/lib/libjpeg.a(jdmaster.o) (jinit_inverse_dct)
/usr/local/ps2dev/ps2sdk/ports/lib/libjpeg.a(jidctfst.o)
                              /usr/local/ps2dev/ps2sdk/ports/lib/libjpeg.a(jddctmgr.o) (jpeg_idct_ifast)
/usr/local/ps2dev/ps2sdk/ports/lib/libjpeg.a(jidctflt.o)
                              /usr/local/ps2dev/ps2sdk/ports/lib/libjpeg.a(jddctmgr.o) (jpeg_idct_float)
/usr/local/ps2dev/ps2sdk/ports/lib/libjpeg.a(jidctint.o)
                              /usr/local/ps2dev/ps2sdk/ports/lib/libjpeg.a(jddctmgr.o) (jpeg_idct_islow)
/usr/local/ps2dev/ps2sdk/ports/lib/libjpeg.a(jidctred.o)
                              /usr/local/ps2dev/ps2sdk/ports/lib/libjpeg.a(jddctmgr.o) (jpeg_idct_4x4)
/usr/local/ps2dev/ps2sdk/ports/lib/libjpeg.a(jdsample.o)
                              /usr/local/ps2dev/ps2sdk/ports/lib/libjpeg.a(jdmaster.o) (jinit_upsampler)
/usr/local/ps2dev/ps2sdk/ports/lib/libjpeg.a(jdcolor.o)
                              /usr/local/ps2dev/ps2sdk/ports/lib/libjpeg.a(jdmaster.o) (jinit_color_deconverter)
/usr/local/ps2dev/ps2sdk/ports/lib/libjpeg.a(jquant1.o)
                              /usr/local/ps2dev/ps2sdk/ports/lib/libjpeg.a(jdmaster.o) (jinit_1pass_quantizer)
/usr/local/ps2dev/ps2sdk/ports/lib/libjpeg.a(jquant2.o)
                              /usr/local/ps2dev/ps2sdk/ports/lib/libjpeg.a(jdmaster.o) (jinit_2pass_quantizer)
/usr/local/ps2dev/ps2sdk/ports/lib/libjpeg.a(jdmerge.o)
                              /usr/local/ps2dev/ps2sdk/ports/lib/libjpeg.a(jdmaster.o) (jinit_merged_upsampler)
/usr/local/ps2dev/ps2sdk/ports/lib/libjpeg.a(jcomapi.o)
                              /usr/local/ps2dev/ps2sdk/ports/lib/libjpeg.a(jcapimin.o) (jpeg_abort)
/usr/local/ps2dev/ps2sdk/ports/lib/libjpeg.a(jutils.o)
                              /usr/local/ps2dev/ps2sdk/ports/lib/libjpeg.a(jcmarker.o) (jpeg_natural_order)
/usr/local/ps2dev/ps2sdk/ports/lib/libjpeg.a(jerror.o)
                              /usr/local/ps2dev/ps2sdk/ports/lib/libjpeg.a(libjpg.o) (jpeg_std_error)
/usr/local/ps2dev/ps2sdk/ports/lib/libjpeg.a(jmemmgr.o)
                              /usr/local/ps2dev/ps2sdk/ports/lib/libjpeg.a(jcapimin.o) (jinit_memory_mgr)
/usr/local/ps2dev/ps2sdk/ports/lib/libjpeg.a(jmemnobs.o)
                              /usr/local/ps2dev/ps2sdk/ports/lib/libjpeg.a(jmemmgr.o) (jpeg_get_small)
/usr/local/ps2dev/ps2sdk/ports/lib/libpng.a(png.o)
                              obj/textures.o (png_set_sig_bytes)
/usr/local/ps2dev/ps2sdk/ports/lib/libpng.a(pngget.o)
                              obj/textures.o (png_get_valid)
/usr/local/ps2dev/ps2sdk/ports/lib/libpng.a(pngtrans.o)
                              obj/textures.o (png_set_filler)
/usr/local/ps2dev/ps2sdk/ports/lib/libpng.a(pngread.o)
                              obj/textures.o (png_create_read_struct)
/usr/local/ps2dev/ps2sdk/ports/lib/libpng.a(pngrio.o)
                              /usr/local/ps2dev/ps2sdk/ports/lib/libpng.a(pngread.o) (png_read_data)
/usr/local/ps2dev/ps2sdk/ports/lib/libpng.a(pngrtran.o)
                              obj/textures.o (png_set_strip_16)
/usr/local/ps2dev/ps2sdk/ports/lib/libpng.a(pngmem.o)
                              /usr/local/ps2dev/ps2sdk/ports/lib/libpng.a(png.o) (png_create_struct)
/usr/local/ps2dev/ps2sdk/ports/lib/libpng.a(pngerror.o)
                              /usr/local/ps2dev/ps2sdk/ports/lib/libpng.a(png.o) (png_error)
/usr/local/ps2dev/ps2sdk/ports/lib/libpng.a(pngrutil.o)
                              /usr/local/ps2dev/ps2sdk/ports/lib/libpng.a(pngread.o) (png_read_chunk_header)
/usr/local/ps2dev/ps2sdk/ports/lib/libpng.a(pngset.o)
                              /usr/local/ps2dev/ps2sdk/ports/lib/libpng.a(pngrutil.o) (png_set_bKGD)
/usr/local/ps2dev/ps2sdk/ports/lib/libz.a(crc32.o)
                              /usr/local/ps2dev/ps2sdk/ports/lib/libpng.a(png.o) (crc32)
/usr/local/ps2dev/ps2sdk/ports/lib/libz.a(inflate.o)
                              /usr/local/ps2dev/ps2sdk/ports/lib/libpng.a(png.o) (inflateReset)
/usr/local/ps2dev/ps2sdk/ports/lib/libz.a(inftrees.o)
                              /usr/local/ps2dev/ps2sdk/ports/lib/libz.a(inflate.o) (inflate_table)
/usr/local/ps2dev/ps2sdk/ports/lib/libz.a(zutil.o)
                              /usr/local/ps2dev/ps2sdk/ports/lib/libz.a(inflate.o) (zcalloc)
/usr/local/ps2dev/ps2sdk/ports/lib/libz.a(adler32.o)
                              /usr/local/ps2dev/ps2sdk/ports/lib/libz.a(inflate.o) (adler32)
/usr/local/ps2dev/ps2sdk/ports/lib/libz.a(inffast.o)
                              /usr/local/ps2dev/ps2sdk/ports/lib/libz.a(inflate.o) (inflate_fast)
/usr/local/ps2dev/ps2sdk/ee/lib/libdebug.a(screenshot.o)
                              /usr/local/ps2dev/ps2sdk/ports/lib/libjpeg.a(libjpg.o) (ps2_screenshot)
/usr/local/ps2dev/ee/lib/gcc-lib/ee/3.2.2/../../../../ee/lib/libm.a(s_ceil.o)
                              obj/themes.o (ceil)
/usr/local/ps2dev/ee/lib/gcc-lib/ee/3.2.2/../../../../ee/lib/libm.a(s_floor.o)
                              obj/gui.o (floor)
/usr/local/ps2dev/ee/lib/gcc-lib/ee/3.2.2/../../../../ee/lib/libm.a(w_pow.o)
                              /usr/local/ps2dev/ps2sdk/ports/lib/libpng.a(pngrtran.o) (pow)
/usr/local/ps2dev/ee/lib/gcc-lib/ee/3.2.2/../../../../ee/lib/libm.a(e_pow.o)
                              /usr/local/ps2dev/ee/lib/gcc-lib/ee/3.2.2/../../../../ee/lib/libm.a(w_pow.o) (__ieee754_pow)
/usr/local/ps2dev/ee/lib/gcc-lib/ee/3.2.2/../../../../ee/lib/libm.a(e_sqrt.o)
                              /usr/local/ps2dev/ee/lib/gcc-lib/ee/3.2.2/../../../../ee/lib/libm.a(e_pow.o) (__ieee754_sqrt)
/usr/local/ps2dev/ee/lib/gcc-lib/ee/3.2.2/../../../../ee/lib/libm.a(s_fabs.o)
                              /usr/local/ps2dev/ee/lib/gcc-lib/ee/3.2.2/../../../../ee/lib/libm.a(e_pow.o) (fabs)
/usr/local/ps2dev/ee/lib/gcc-lib/ee/3.2.2/../../../../ee/lib/libm.a(s_finite.o)
                              /usr/local/ps2dev/ee/lib/gcc-lib/ee/3.2.2/../../../../ee/lib/libm.a(w_pow.o) (finite)
/usr/local/ps2dev/ee/lib/gcc-lib/ee/3.2.2/../../../../ee/lib/libm.a(s_infconst.o)
                              /usr/local/ps2dev/ee/lib/gcc-lib/ee/3.2.2/../../../../ee/lib/libm.a(w_pow.o) (__infinity)
/usr/local/ps2dev/ee/lib/gcc-lib/ee/3.2.2/../../../../ee/lib/libm.a(s_isnan.o)
                              /usr/local/ps2dev/ee/lib/gcc-lib/ee/3.2.2/../../../../ee/lib/libm.a(w_pow.o) (isnan)
/usr/local/ps2dev/ee/lib/gcc-lib/ee/3.2.2/../../../../ee/lib/libm.a(s_lib_ver.o)
                              /usr/local/ps2dev/ee/lib/gcc-lib/ee/3.2.2/../../../../ee/lib/libm.a(w_pow.o) (__fdlib_version)
/usr/local/ps2dev/ee/lib/gcc-lib/ee/3.2.2/../../../../ee/lib/libm.a(s_matherr.o)
                              /usr/local/ps2dev/ee/lib/gcc-lib/ee/3.2.2/../../../../ee/lib/libm.a(w_pow.o) (matherr)
/usr/local/ps2dev/ee/lib/gcc-lib/ee/3.2.2/../../../../ee/lib/libm.a(s_rint.o)
                              /usr/local/ps2dev/ee/lib/gcc-lib/ee/3.2.2/../../../../ee/lib/libm.a(w_pow.o) (rint)
/usr/local/ps2dev/ee/lib/gcc-lib/ee/3.2.2/../../../../ee/lib/libm.a(s_scalbn.o)
                              /usr/local/ps2dev/ee/lib/gcc-lib/ee/3.2.2/../../../../ee/lib/libm.a(e_pow.o) (scalbn)
/usr/local/ps2dev/ee/lib/gcc-lib/ee/3.2.2/../../../../ee/lib/libm.a(s_copysign.o)
                              /usr/local/ps2dev/ee/lib/gcc-lib/ee/3.2.2/../../../../ee/lib/libm.a(s_scalbn.o) (copysign)
/usr/local/ps2dev/ps2sdk/ee/lib/libmc.a(libmc.o)
                              obj/opl.o (mcInit)
/usr/local/ps2dev/ps2sdk/ports/lib/libfreetype.a(ftinit.o)
                              obj/fntsys.o (FT_Init_FreeType)
/usr/local/ps2dev/ps2sdk/ports/lib/libfreetype.a(ftbase.o)
                              obj/fntsys.o (FT_Load_Char)
/usr/local/ps2dev/ps2sdk/ports/lib/libfreetype.a(autohint.o)
                              /usr/local/ps2dev/ps2sdk/ports/lib/libfreetype.a(ftinit.o) (autohint_module_class)
/usr/local/ps2dev/ps2sdk/ports/lib/libfreetype.a(bdf.o)
                              /usr/local/ps2dev/ps2sdk/ports/lib/libfreetype.a(ftinit.o) (bdf_driver_class)
/usr/local/ps2dev/ps2sdk/ports/lib/libfreetype.a(cff.o)
                              /usr/local/ps2dev/ps2sdk/ports/lib/libfreetype.a(ftinit.o) (cff_driver_class)
/usr/local/ps2dev/ps2sdk/ports/lib/libfreetype.a(type1cid.o)
                              /usr/local/ps2dev/ps2sdk/ports/lib/libfreetype.a(ftinit.o) (t1cid_driver_class)
/usr/local/ps2dev/ps2sdk/ports/lib/libfreetype.a(pcf.o)
                              /usr/local/ps2dev/ps2sdk/ports/lib/libfreetype.a(ftinit.o) (pcf_driver_class)
/usr/local/ps2dev/ps2sdk/ports/lib/libfreetype.a(pfr.o)
                              /usr/local/ps2dev/ps2sdk/ports/lib/libfreetype.a(ftinit.o) (pfr_driver_class)
/usr/local/ps2dev/ps2sdk/ports/lib/libfreetype.a(psaux.o)
                              /usr/local/ps2dev/ps2sdk/ports/lib/libfreetype.a(ftinit.o) (psaux_module_class)
/usr/local/ps2dev/ps2sdk/ports/lib/libfreetype.a(pshinter.o)
                              /usr/local/ps2dev/ps2sdk/ports/lib/libfreetype.a(ftinit.o) (pshinter_module_class)
/usr/local/ps2dev/ps2sdk/ports/lib/libfreetype.a(psnames.o)
                              /usr/local/ps2dev/ps2sdk/ports/lib/libfreetype.a(ftinit.o) (psnames_module_class)
/usr/local/ps2dev/ps2sdk/ports/lib/libfreetype.a(raster.o)
                              /usr/local/ps2dev/ps2sdk/ports/lib/libfreetype.a(ftinit.o) (ft_raster1_renderer_class)
/usr/local/ps2dev/ps2sdk/ports/lib/libfreetype.a(sfnt.o)
                              /usr/local/ps2dev/ps2sdk/ports/lib/libfreetype.a(ftinit.o) (sfnt_module_class)
/usr/local/ps2dev/ps2sdk/ports/lib/libfreetype.a(smooth.o)
                              /usr/local/ps2dev/ps2sdk/ports/lib/libfreetype.a(ftinit.o) (ft_smooth_renderer_class)
/usr/local/ps2dev/ps2sdk/ports/lib/libfreetype.a(truetype.o)
                              /usr/local/ps2dev/ps2sdk/ports/lib/libfreetype.a(ftinit.o) (tt_driver_class)
/usr/local/ps2dev/ps2sdk/ports/lib/libfreetype.a(type1.o)
                              /usr/local/ps2dev/ps2sdk/ports/lib/libfreetype.a(ftinit.o) (t1_driver_class)
/usr/local/ps2dev/ps2sdk/ports/lib/libfreetype.a(type42.o)
                              /usr/local/ps2dev/ps2sdk/ports/lib/libfreetype.a(ftinit.o) (t42_driver_class)
/usr/local/ps2dev/ps2sdk/ports/lib/libfreetype.a(winfnt.o)
                              /usr/local/ps2dev/ps2sdk/ports/lib/libfreetype.a(ftinit.o) (winfnt_driver_class)
/usr/local/ps2dev/ps2sdk/ports/lib/libfreetype.a(ftsystem.o)
                              /usr/local/ps2dev/ps2sdk/ports/lib/libfreetype.a(ftbase.o) (FT_Stream_Open)
/usr/local/ps2dev/ps2sdk/ports/lib/libfreetype.a(ftglyph.o)
                              /usr/local/ps2dev/ps2sdk/ports/lib/libfreetype.a(autohint.o) (FT_Matrix_Invert)
/usr/local/ps2dev/ps2sdk/ports/lib/libfreetype.a(ftgzip.o)
                              /usr/local/ps2dev/ps2sdk/ports/lib/libfreetype.a(pcf.o) (FT_Stream_OpenGzip)
/usr/local/ps2dev/ps2sdk/ports/lib/libfreetype.a(ftlzw.o)
                              /usr/local/ps2dev/ps2sdk/ports/lib/libfreetype.a(pcf.o) (FT_Stream_OpenLZW)
/usr/local/ps2dev/ps2sdk/ee/lib/libvux.a(vuhw.o)
                              obj/gui.o (Vu0DotProduct)
/usr/local/ps2dev/ps2sdk/ee/lib/libcdvd.a(cdInit.o)
                              obj/system.o (cdInit)
/usr/local/ps2dev/ps2sdk/ee/lib/libcdvd.a(cdDiskReady.o)
                              obj/system.o (cdDiskReady)
/usr/local/ps2dev/ps2sdk/ee/lib/libcdvd.a(cdSemaInit.o)
                              /usr/local/ps2dev/ps2sdk/ee/lib/libcdvd.a(cdInit.o) (cdSemaInit)
/usr/local/ps2dev/ps2sdk/ee/lib/libcdvd.a(cdSemaExit.o)
                              /usr/local/ps2dev/ps2sdk/ee/lib/libcdvd.a(cdInit.o) (cdSemaExit)
/usr/local/ps2dev/ps2sdk/ee/lib/libcdvd.a(_ncmd_internals.o)
                              /usr/local/ps2dev/ps2sdk/ee/lib/libcdvd.a(cdInit.o) (bindNCmd)
/usr/local/ps2dev/ps2sdk/ee/lib/libcdvd.a(cdStandby.o)
                              obj/system.o (cdStandby)
/usr/local/ps2dev/ps2sdk/ee/lib/libcdvd.a(cdStop.o)
                              obj/system.o (cdStop)
/usr/local/ps2dev/ps2sdk/ee/lib/libcdvd.a(cdNCmdDiskReady.o)
                              /usr/local/ps2dev/ps2sdk/ee/lib/libcdvd.a(cdStandby.o) (cdNCmdDiskReady)
/usr/local/ps2dev/ps2sdk/ee/lib/libcdvd.a(cdSync.o)
                              obj/system.o (cdSync)
/usr/local/ps2dev/ps2sdk/ee/lib/libcdvd.a(cdCheckNCmd.o)
                              /usr/local/ps2dev/ps2sdk/ee/lib/libcdvd.a(cdStandby.o) (cdCheckNCmd)
/usr/local/ps2dev/ps2sdk/ee/lib/libcdvd.a(_scmd_internals.o)
                              /usr/local/ps2dev/ps2sdk/ee/lib/libcdvd.a(cdInit.o) (bindSCmd)
/usr/local/ps2dev/ps2sdk/ee/lib/libcdvd.a(cdReadClock.o)
                              obj/OSDHistory.o (cdReadClock)
/usr/local/ps2dev/ps2sdk/ee/lib/libcdvd.a(cdGetDiscType.o)
                              obj/system.o (cdGetDiscType)
/usr/local/ps2dev/ps2sdk/ee/lib/libcdvd.a(cdStatus.o)
                              obj/system.o (cdStatus)
/usr/local/ps2dev/ps2sdk/ee/lib/libcdvd.a(cdCheckSCmd.o)
                              /usr/local/ps2dev/ps2sdk/ee/lib/libcdvd.a(cdReadClock.o) (cdCheckSCmd)
/usr/local/ps2dev/ps2sdk/ee/lib/libcdvd.a(cdSyncS.o)
                              /usr/local/ps2dev/ps2sdk/ee/lib/libcdvd.a(cdInit.o) (cdSyncS)
/usr/local/ps2dev/ps2sdk/ee/lib/libcdvd.a(_libcdvd_internals.o)
                              /usr/local/ps2dev/ps2sdk/ee/lib/libcdvd.a(cdInit.o) (bindInit)
/usr/local/ps2dev/ps2sdk/ee/lib/libcdvd.a(cdCallback.o)
                              /usr/local/ps2dev/ps2sdk/ee/lib/libcdvd.a(cdStandby.o) (cdCallback)
/usr/local/ps2dev/ps2sdk/ee/lib/libc.a(memcpy.o)
                              obj/system.o (memcpy)
/usr/local/ps2dev/ps2sdk/ee/lib/libc.a(memset.o)
                              obj/menusys.o (memset)
/usr/local/ps2dev/ps2sdk/ee/lib/libc.a(strcat.o)
                              obj/dia.o (strcat)
/usr/local/ps2dev/ps2sdk/ee/lib/libc.a(strncmp.o)
                              obj/config.o (strncmp)
/usr/local/ps2dev/ps2sdk/ee/lib/libc.a(memcmp.o)
                              obj/system.o (memcmp)
/usr/local/ps2dev/ps2sdk/ee/lib/libc.a(memmove.o)
                              obj/hdd.o (memmove)
/usr/local/ps2dev/ps2sdk/ee/lib/libc.a(strcpy.o)
                              obj/system.o (strcpy)
/usr/local/ps2dev/ps2sdk/ee/lib/libc.a(strncpy.o)
                              obj/OSDHistory.o (strncpy)
/usr/local/ps2dev/ps2sdk/ee/lib/libc.a(terminate.o)
                              /usr/local/ps2dev/ps2sdk/ports/lib/libpng.a(pngread.o) (abort)
/usr/local/ps2dev/ps2sdk/ee/lib/libc.a(strlen.o)
                              obj/OSDHistory.o (strlen)
/usr/local/ps2dev/ps2sdk/ee/lib/libc.a(strchr.o)
                              obj/config.o (strchr)
/usr/local/ps2dev/ps2sdk/ee/lib/libc.a(strcmp.o)
                              obj/OSDHistory.o (strcmp)
/usr/local/ps2dev/ps2sdk/ee/lib/libc.a(setjmp.o)
                              obj/textures.o (setjmp)
/usr/local/ps2dev/ps2sdk/ee/lib/libc.a(qsort.o)
                              /usr/local/ps2dev/ps2sdk/ports/lib/libfreetype.a(bdf.o) (qsort)
/usr/local/ps2dev/ps2sdk/ee/lib/libc.a(snprintf.o)
                              obj/system.o (snprintf)
/usr/local/ps2dev/ps2sdk/ee/lib/libc.a(sprintf.o)
                              obj/OSDHistory.o (sprintf)
/usr/local/ps2dev/ps2sdk/ee/lib/libc.a(fprintf.o)
                              /usr/local/ps2dev/ps2sdk/ports/lib/libjpeg.a(libjpg.o) (fprintf)
/usr/local/ps2dev/ps2sdk/ee/lib/libc.a(printf.o)
                              /usr/local/ps2dev/gsKit/lib/libgskit.a(gsCore.o) (printf)
/usr/local/ps2dev/ps2sdk/ee/lib/libc.a(vprintf.o)
                              obj/ioman.o (vprintf)
/usr/local/ps2dev/ps2sdk/ee/lib/libc.a(sscanf.o)
                              obj/config.o (sscanf)
/usr/local/ps2dev/ps2sdk/ee/lib/libc.a(_xscanf_internals.o)
                              /usr/local/ps2dev/ps2sdk/ee/lib/libc.a(sscanf.o) (_s_xgetc)
/usr/local/ps2dev/ps2sdk/ee/lib/libc.a(malloc.o)
                              obj/fntsys.o (malloc)
/usr/local/ps2dev/ps2sdk/ee/lib/libc.a(realloc.o)
                              obj/fntsys.o (realloc)
/usr/local/ps2dev/ps2sdk/ee/lib/libc.a(calloc.o)
                              obj/textures.o (calloc)
/usr/local/ps2dev/ps2sdk/ee/lib/libc.a(memalign.o)
                              obj/fntsys.o (memalign)
/usr/local/ps2dev/ps2sdk/ee/lib/libc.a(free.o)
                              obj/fntsys.o (free)
/usr/local/ps2dev/ps2sdk/ee/lib/libc.a(__alloc_internals.o)
                              /usr/local/ps2dev/ps2sdk/ee/lib/libc.a(malloc.o) (_ps2sdk_alloc_lock)
/usr/local/ps2dev/ps2sdk/ee/lib/libc.a(strcasecmp.o)
                              obj/menusys.o (strcasecmp)
/usr/local/ps2dev/ps2sdk/ee/lib/libc.a(strrchr.o)
                              obj/appsupport.o (strrchr)
/usr/local/ps2dev/ps2sdk/ee/lib/libc.a(strstr.o)
                              obj/lang.o (strstr)
/usr/local/ps2dev/ps2sdk/ee/lib/libc.a(tolower.o)
                              /usr/local/ps2dev/ps2sdk/ee/lib/libc.a(strcasecmp.o) (tolower)
/usr/local/ps2dev/ps2sdk/ee/lib/libc.a(isupper.o)
                              /usr/local/ps2dev/ps2sdk/ee/lib/libc.a(tolower.o) (isupper)
/usr/local/ps2dev/ps2sdk/ee/lib/libc.a(isdigit.o)
                              /usr/local/ps2dev/ps2sdk/ports/lib/libfreetype.a(type1cid.o) (isdigit)
/usr/local/ps2dev/ps2sdk/ee/lib/libc.a(isalnum.o)
                              /usr/local/ps2dev/ps2sdk/ports/lib/libfreetype.a(type1.o) (isalnum)
/usr/local/ps2dev/ps2sdk/ee/lib/libc.a(isprint.o)
                              /usr/local/ps2dev/ps2sdk/ports/lib/libjpeg.a(libjpg.o) (isprint)
/usr/local/ps2dev/ps2sdk/ee/lib/libc.a(isxdigit.o)
                              /usr/local/ps2dev/ps2sdk/ports/lib/libfreetype.a(type1.o) (isxdigit)
/usr/local/ps2dev/ps2sdk/ee/lib/libc.a(fclose.o)
                              obj/textures.o (fclose)
/usr/local/ps2dev/ps2sdk/ee/lib/libc.a(fgetc.o)
                              /usr/local/ps2dev/ps2sdk/ee/lib/libc.a(_xscanf_internals.o) (fgetc)
/usr/local/ps2dev/ps2sdk/ee/lib/libc.a(fopen.o)
                              obj/textures.o (fopen)
/usr/local/ps2dev/ps2sdk/ee/lib/libc.a(fputc.o)
                              /usr/local/ps2dev/ps2sdk/ports/lib/libjpeg.a(libjpg.o) (fputc)
/usr/local/ps2dev/ps2sdk/ee/lib/libc.a(fread.o)
                              /usr/local/ps2dev/ps2sdk/ports/lib/libjpeg.a(jdatasrc.o) (fread)
/usr/local/ps2dev/ps2sdk/ee/lib/libc.a(fseek.o)
                              /usr/local/ps2dev/ps2sdk/ports/lib/libfreetype.a(ftsystem.o) (fseek)
/usr/local/ps2dev/ps2sdk/ee/lib/libc.a(ftell.o)
                              /usr/local/ps2dev/ps2sdk/ports/lib/libfreetype.a(ftsystem.o) (ftell)
/usr/local/ps2dev/ps2sdk/ee/lib/libc.a(fwrite.o)
                              /usr/local/ps2dev/ps2sdk/ports/lib/libjpeg.a(libjpg.o) (fwrite)
/usr/local/ps2dev/ps2sdk/ee/lib/libc.a(getfdtype.o)
                              /usr/local/ps2dev/ps2sdk/ee/lib/libc.a(fopen.o) (__direct_pwd)
/usr/local/ps2dev/ps2sdk/ee/lib/libc.a(putc.o)
                              /usr/local/ps2dev/ps2sdk/ports/lib/libjpeg.a(libjpg.o) (putc)
/usr/local/ps2dev/ps2sdk/ee/lib/libc.a(puts.o)
                              obj/opl.o (puts)
/usr/local/ps2dev/ps2sdk/ee/lib/libc.a(stdio.o)
                              /usr/local/ps2dev/ps2sdk/ee/lib/libc.a(fopen.o) (__stdio_initialised)
/usr/local/ps2dev/ps2sdk/ee/lib/libc.a(ungetc.o)
                              /usr/local/ps2dev/ps2sdk/ee/lib/libc.a(_xscanf_internals.o) (ungetc)
/usr/local/ps2dev/ps2sdk/ee/lib/libc.a(__stdio_internals.o)
                              /usr/local/ps2dev/ps2sdk/ee/lib/libfileXio.a(fileXio_rpc.o) (_ps2sdk_close)
/usr/local/ps2dev/ps2sdk/ee/lib/libc.a(getenv.o)
                              /usr/local/ps2dev/ps2sdk/ports/lib/libjpeg.a(jmemmgr.o) (getenv)
/usr/local/ps2dev/ps2sdk/ee/lib/libc.a(rand.o)
                              obj/OSDHistory.o (rand)
/usr/local/ps2dev/ps2sdk/ee/lib/libc.a(strtod.o)
                              /usr/local/ps2dev/ps2sdk/ports/lib/libpng.a(pngrutil.o) (strtod)
/usr/local/ps2dev/ps2sdk/ee/lib/libc.a(strtol.o)
                              obj/config.o (strtol)
/usr/local/ps2dev/ps2sdk/ee/lib/libc.a(__assert_fail.o)
                              obj/menusys.o (__assert_fail)
/usr/local/ps2dev/ps2sdk/ee/lib/libc.a(__stdlib_internals.o)
                              /usr/local/ps2dev/ps2sdk/ee/lib/libc.a(rand.o) (__stdlib_rand_seed)
/usr/local/ps2dev/ps2sdk/ee/lib/libc.a(sleep.o)
                              obj/ioman.o (sleep)
/usr/local/ps2dev/ps2sdk/ee/lib/libc.a(clock.o)
                              /usr/local/ps2dev/ps2sdk/ee/lib/libc.a(sleep.o) (clock)
/usr/local/ps2dev/ps2sdk/ee/lib/libc.a(init_libc.o)
                              /usr/local/ps2dev/ps2sdk/ee/startup/crt0.o (_ps2sdk_libc_init)
/usr/local/ps2dev/ps2sdk/ee/lib/libc.a(init_args.o)
                              /usr/local/ps2dev/ps2sdk/ee/startup/crt0.o (_ps2sdk_args_parse)
/usr/local/ps2dev/ps2sdk/ee/lib/libc.a(sbrk.o)
                              /usr/local/ps2dev/ps2sdk/ee/lib/libc.a(malloc.o) (ps2_sbrk)
/usr/local/ps2dev/ps2sdk/ee/lib/libc.a(vxprintf.o)
                              /usr/local/ps2dev/ps2sdk/ee/lib/libc.a(snprintf.o) (vxprintf)
/usr/local/ps2dev/ps2sdk/ee/lib/libc.a(__sout.o)
                              /usr/local/ps2dev/ps2sdk/ee/lib/libc.a(snprintf.o) (__sout)
/usr/local/ps2dev/ps2sdk/ee/lib/libc.a(vsnprintf.o)
                              /usr/local/ps2dev/ps2sdk/ee/lib/libc.a(vprintf.o) (vsnprintf)
/usr/local/ps2dev/ps2sdk/ee/lib/libc.a(__fout.o)
                              /usr/local/ps2dev/ps2sdk/ee/lib/libc.a(fprintf.o) (__fout)
/usr/local/ps2dev/ps2sdk/ee/lib/libc.a(putchar.o)
                              /usr/local/ps2dev/ps2sdk/ee/lib/libc.a(fwrite.o) (putchar)
/usr/local/ps2dev/ps2sdk/ee/lib/libc.a(vxscanf.o)
                              /usr/local/ps2dev/ps2sdk/ee/lib/libc.a(sscanf.o) (vxscanf)
/usr/local/ps2dev/ps2sdk/ee/lib/libc.a(isalpha.o)
                              /usr/local/ps2dev/ps2sdk/ee/lib/libc.a(isalnum.o) (isalpha)
/usr/local/ps2dev/ps2sdk/ee/lib/libc.a(iscntrl.o)
                              /usr/local/ps2dev/ps2sdk/ee/lib/libc.a(isprint.o) (iscntrl)
/usr/local/ps2dev/ps2sdk/ee/lib/libc.a(isspace.o)
                              /usr/local/ps2dev/ps2sdk/ee/lib/libc.a(strtod.o) (isspace)
/usr/local/ps2dev/ps2sdk/ee/lib/libc.a(fcloseall.o)
                              /usr/local/ps2dev/ps2sdk/ee/lib/libc.a(__stdio_internals.o) (_fcloseall)
/usr/local/ps2dev/ps2sdk/ee/lib/libc.a(chdir.o)
                              /usr/local/ps2dev/ps2sdk/ee/lib/libc.a(init_args.o) (chdir)
/usr/local/ps2dev/ps2sdk/ee/lib/libc.a(islower.o)
                              /usr/local/ps2dev/ps2sdk/ee/lib/libc.a(isalpha.o) (islower)
/usr/local/ps2dev/ps2sdk/ee/lib/libkernel.a(SetGsCrt.o)
                              /usr/local/ps2dev/gsKit/lib/libgskit.a(gsInit.o) (SetGsCrt)
/usr/local/ps2dev/ps2sdk/ee/lib/libkernel.a(Exit.o)
                              obj/system.o (Exit)
/usr/local/ps2dev/ps2sdk/ee/lib/libkernel.a(ExecPS2.o)
                              obj/system.o (ExecPS2)
/usr/local/ps2dev/ps2sdk/ee/lib/libkernel.a(SetVCommonHandler.o)
                              obj/system.o (SetVCommonHandler)
/usr/local/ps2dev/ps2sdk/ee/lib/libkernel.a(AddIntcHandler.o)
                              /usr/local/ps2dev/gsKit/lib/libgskit.a(gsCore.o) (AddIntcHandler)
/usr/local/ps2dev/ps2sdk/ee/lib/libkernel.a(RemoveIntcHandler.o)
                              /usr/local/ps2dev/gsKit/lib/libgskit.a(gsCore.o) (RemoveIntcHandler)
/usr/local/ps2dev/ps2sdk/ee/lib/libkernel.a(SetAlarm.o)
                              obj/ioman.o (SetAlarm)
/usr/local/ps2dev/ps2sdk/ee/lib/libkernel.a(ReleaseAlarm.o)
                              obj/ioman.o (ReleaseAlarm)
/usr/local/ps2dev/ps2sdk/ee/lib/libkernel.a(iSetAlarm.o)
                              obj/ioman.o (iSetAlarm)
/usr/local/ps2dev/ps2sdk/ee/lib/libkernel.a(CreateThread.o)
                              obj/ioman.o (CreateThread)
/usr/local/ps2dev/ps2sdk/ee/lib/libkernel.a(DeleteThread.o)
                              /usr/local/ps2dev/ps2sdk/ee/lib/libpoweroff.a(poweroff.o) (DeleteThread)
/usr/local/ps2dev/ps2sdk/ee/lib/libkernel.a(StartThread.o)
                              obj/ioman.o (StartThread)
/usr/local/ps2dev/ps2sdk/ee/lib/libkernel.a(ExitDeleteThread.o)
                              obj/ioman.o (ExitDeleteThread)
/usr/local/ps2dev/ps2sdk/ee/lib/libkernel.a(TerminateThread.o)
                              /usr/local/ps2dev/ps2sdk/ee/lib/libpoweroff.a(poweroff.o) (TerminateThread)
/usr/local/ps2dev/ps2sdk/ee/lib/libkernel.a(ChangeThreadPriority.o)
                              obj/ioman.o (ChangeThreadPriority)
/usr/local/ps2dev/ps2sdk/ee/lib/libkernel.a(iRotateThreadReadyQueue.o)
                              obj/ioman.o (iRotateThreadReadyQueue)
/usr/local/ps2dev/ps2sdk/ee/lib/libkernel.a(GetThreadId.o)
                              obj/renderman.o (GetThreadId)
/usr/local/ps2dev/ps2sdk/ee/lib/libkernel.a(ReferThreadStatus.o)
                              /usr/local/ps2dev/ps2sdk/ee/lib/libpoweroff.a(poweroff.o) (ReferThreadStatus)
/usr/local/ps2dev/ps2sdk/ee/lib/libkernel.a(SleepThread.o)
                              obj/renderman.o (SleepThread)
/usr/local/ps2dev/ps2sdk/ee/lib/libkernel.a(WakeupThread.o)
                              obj/ioman.o (WakeupThread)
/usr/local/ps2dev/ps2sdk/ee/lib/libkernel.a(iWakeupThread.o)
                              obj/renderman.o (iWakeupThread)
/usr/local/ps2dev/ps2sdk/ee/lib/libkernel.a(EndOfHeap.o)
                              /usr/local/ps2dev/ps2sdk/ee/lib/libc.a(sbrk.o) (EndOfHeap)
/usr/local/ps2dev/ps2sdk/ee/lib/libkernel.a(CreateSema.o)
                              obj/fntsys.o (CreateSema)
/usr/local/ps2dev/ps2sdk/ee/lib/libkernel.a(DeleteSema.o)
                              obj/fntsys.o (DeleteSema)
/usr/local/ps2dev/ps2sdk/ee/lib/libkernel.a(iSignalSema.o)
                              /usr/local/ps2dev/ps2sdk/ee/lib/libpoweroff.a(poweroff.o) (iSignalSema)
/usr/local/ps2dev/ps2sdk/ee/lib/libkernel.a(SignalSema.o)
                              obj/fntsys.o (SignalSema)
/usr/local/ps2dev/ps2sdk/ee/lib/libkernel.a(WaitSema.o)
                              obj/fntsys.o (WaitSema)
/usr/local/ps2dev/ps2sdk/ee/lib/libkernel.a(PollSema.o)
                              /usr/local/ps2dev/ps2sdk/ee/lib/libfileXio.a(fileXio_rpc.o) (PollSema)
/usr/local/ps2dev/ps2sdk/ee/lib/libkernel.a(FlushCache.o)
                              obj/system.o (FlushCache)
/usr/local/ps2dev/ps2sdk/ee/lib/libkernel.a(GsGetIMR.o)
                              /usr/local/ps2dev/ps2sdk/ee/lib/libdebug.a(screenshot.o) (GsGetIMR)
/usr/local/ps2dev/ps2sdk/ee/lib/libkernel.a(GsPutIMR.o)
                              /usr/local/ps2dev/gsKit/lib/libgskit.a(gsInit.o) (GsPutIMR)
/usr/local/ps2dev/ps2sdk/ee/lib/libkernel.a(SifWriteBackDCache.o)
                              /usr/local/ps2dev/ps2sdk/ee/lib/libfileXio.a(fileXio_rpc.o) (SifWriteBackDCache)
/usr/local/ps2dev/ps2sdk/ee/lib/libkernel.a(__errno.o)
                              /usr/local/ps2dev/ee/lib/gcc-lib/ee/3.2.2/../../../../ee/lib/libm.a(w_pow.o) (__errno)
/usr/local/ps2dev/ps2sdk/ee/lib/libkernel.a(errno.o)
                              /usr/local/ps2dev/ps2sdk/ee/lib/libc.a(fclose.o) (errno)
/usr/local/ps2dev/ps2sdk/ee/lib/libkernel.a(sif_cmd_addhandler.o)
                              /usr/local/ps2dev/ps2sdk/ee/lib/libpoweroff.a(poweroff.o) (SifAddCmdHandler)
/usr/local/ps2dev/ps2sdk/ee/lib/libkernel.a(SifBindRpc.o)
                              /usr/local/ps2dev/ps2sdk/ee/lib/libpoweroff.a(poweroff.o) (SifBindRpc)
/usr/local/ps2dev/ps2sdk/ee/lib/libkernel.a(SifCallRpc.o)
                              /usr/local/ps2dev/ps2sdk/ee/lib/libpoweroff.a(poweroff.o) (SifCallRpc)
/usr/local/ps2dev/ps2sdk/ee/lib/libkernel.a(SifRpcMain.o)
                              /usr/local/ps2dev/ps2sdk/ee/lib/libkernel.a(SifBindRpc.o) (_sif_rpc_data)
/usr/local/ps2dev/ps2sdk/ee/lib/libkernel.a(_rpc_get_packet.o)
                              /usr/local/ps2dev/ps2sdk/ee/lib/libkernel.a(SifBindRpc.o) (_rpc_get_packet)
/usr/local/ps2dev/ps2sdk/ee/lib/libkernel.a(_rpc_get_fpacket.o)
                              /usr/local/ps2dev/ps2sdk/ee/lib/libkernel.a(SifRpcMain.o) (_rpc_get_fpacket)
/usr/local/ps2dev/ps2sdk/ee/lib/libkernel.a(SifCheckStatRpc.o)
                              /usr/local/ps2dev/ps2sdk/ee/lib/libmc.a(libmc.o) (SifCheckStatRpc)
/usr/local/ps2dev/ps2sdk/ee/lib/libkernel.a(fio_exit.o)
                              obj/system.o (fioExit)
/usr/local/ps2dev/ps2sdk/ee/lib/libkernel.a(fio_open.o)
                              obj/OSDHistory.o (fioOpen)
/usr/local/ps2dev/ps2sdk/ee/lib/libkernel.a(fio_close.o)
                              obj/OSDHistory.o (fioClose)
/usr/local/ps2dev/ps2sdk/ee/lib/libkernel.a(fio_read.o)
                              obj/OSDHistory.o (fioRead)
/usr/local/ps2dev/ps2sdk/ee/lib/libkernel.a(fio_write.o)
                              obj/OSDHistory.o (fioWrite)
/usr/local/ps2dev/ps2sdk/ee/lib/libkernel.a(fio_lseek.o)
                              obj/OSDHistory.o (fioLseek)
/usr/local/ps2dev/ps2sdk/ee/lib/libkernel.a(fio_mkdir.o)
                              obj/OSDHistory.o (fioMkdir)
/usr/local/ps2dev/ps2sdk/ee/lib/libkernel.a(_fio_read_intr.o)
                              /usr/local/ps2dev/ps2sdk/ee/lib/libkernel.a(fio_read.o) (_fio_read_intr)
/usr/local/ps2dev/ps2sdk/ee/lib/libkernel.a(fio_ioctl.o)
                              obj/usbsupport.o (fioIoctl)
/usr/local/ps2dev/ps2sdk/ee/lib/libkernel.a(fio_dopen.o)
                              obj/supportbase.o (fioDopen)
/usr/local/ps2dev/ps2sdk/ee/lib/libkernel.a(fio_dclose.o)
                              obj/supportbase.o (fioDclose)
/usr/local/ps2dev/ps2sdk/ee/lib/libkernel.a(fio_dread.o)
                              obj/supportbase.o (fioDread)
/usr/local/ps2dev/ps2sdk/ee/lib/libkernel.a(fio_getstat.o)
                              obj/usbsupport.o (fioGetstat)
/usr/local/ps2dev/ps2sdk/ee/lib/libkernel.a(fio_remove.o)
                              obj/config.o (fioRemove)
/usr/local/ps2dev/ps2sdk/ee/lib/libkernel.a(fio_rmdir.o)
                              /usr/local/ps2dev/ps2sdk/ee/lib/libc.a(__stdio_internals.o) (fioRmdir)
/usr/local/ps2dev/ps2sdk/ee/lib/libkernel.a(SifLoadFileInit.o)
                              obj/system.o (SifLoadFileInit)
/usr/local/ps2dev/ps2sdk/ee/lib/libkernel.a(SifLoadFileExit.o)
                              obj/system.o (SifLoadFileExit)
/usr/local/ps2dev/ps2sdk/ee/lib/libkernel.a(SifLoadModule.o)
                              obj/system.o (SifLoadModule)
/usr/local/ps2dev/ps2sdk/ee/lib/libkernel.a(SifExecModuleBuffer.o)
                              obj/system.o (SifExecModuleBuffer)
/usr/local/ps2dev/ps2sdk/ee/lib/libkernel.a(SifInitIopHeap.o)
                              obj/system.o (SifInitIopHeap)
/usr/local/ps2dev/ps2sdk/ee/lib/libkernel.a(SifExitIopHeap.o)
                              obj/system.o (SifExitIopHeap)
/usr/local/ps2dev/ps2sdk/ee/lib/libkernel.a(SifAllocIopHeap.o)
                              /usr/local/ps2dev/ps2sdk/ee/lib/libpatches.a(patch_enable_lmb.o) (SifAllocIopHeap)
/usr/local/ps2dev/ps2sdk/ee/lib/libkernel.a(SifFreeIopHeap.o)
                              /usr/local/ps2dev/ps2sdk/ee/lib/libkernel.a(SifExecModuleBuffer.o) (SifFreeIopHeap)
/usr/local/ps2dev/ps2sdk/ee/lib/libkernel.a(SifIopReset.o)
                              obj/system.o (SifIopReset)
/usr/local/ps2dev/ps2sdk/ee/lib/libkernel.a(SifIopSync.o)
                              obj/system.o (SifIopSync)
/usr/local/ps2dev/ps2sdk/ee/lib/libkernel.a(__iop_control_internals.o)
                              /usr/local/ps2dev/ps2sdk/ee/lib/libpoweroff.a(poweroff.o) (_iop_reboot_count)
/usr/local/ps2dev/ps2sdk/ee/lib/libkernel.a(GetRomName.o)
                              obj/util.o (GetRomName)
/usr/local/ps2dev/ps2sdk/ee/lib/libkernel.a(configGetTvScreenType.o)
                              /usr/local/ps2dev/gsKit/lib/libgskit.a(gsInit.o) (configGetTvScreenType)
/usr/local/ps2dev/ps2sdk/ee/lib/libkernel.a(DIntr.o)
                              obj/renderman.o (DIntr)
/usr/local/ps2dev/ps2sdk/ee/lib/libkernel.a(EIntr.o)
                              obj/renderman.o (EIntr)
/usr/local/ps2dev/ps2sdk/ee/lib/libkernel.a(EnableIntc.o)
                              /usr/local/ps2dev/gsKit/lib/libgskit.a(gsCore.o) (EnableIntc)
/usr/local/ps2dev/ps2sdk/ee/lib/libkernel.a(DisableIntc.o)
                              /usr/local/ps2dev/gsKit/lib/libgskit.a(gsCore.o) (DisableIntc)
/usr/local/ps2dev/ps2sdk/ee/lib/libkernel.a(SyncDCache.o)
                              /usr/local/ps2dev/gsKit/lib/libdmakit.a(dmaCore.o) (SyncDCache)
/usr/local/ps2dev/ps2sdk/ee/lib/libkernel.a(sio_putc.o)
                              /usr/local/ps2dev/ps2sdk/ee/lib/libc.a(fwrite.o) (sio_putc)
/usr/local/ps2dev/ps2sdk/ee/lib/libkernel.a(cpu_ticks.o)
                              obj/pad.o (cpu_ticks)
/usr/local/ps2dev/ps2sdk/ee/lib/libkernel.a(_EnableIntc.o)
                              /usr/local/ps2dev/ps2sdk/ee/lib/libkernel.a(EnableIntc.o) (_EnableIntc)
/usr/local/ps2dev/ps2sdk/ee/lib/libkernel.a(_DisableIntc.o)
                              /usr/local/ps2dev/ps2sdk/ee/lib/libkernel.a(DisableIntc.o) (_DisableIntc)
/usr/local/ps2dev/ps2sdk/ee/lib/libkernel.a(GetOsdConfigParam.o)
                              /usr/local/ps2dev/ps2sdk/ee/lib/libkernel.a(configGetTvScreenType.o) (GetOsdConfigParam)
/usr/local/ps2dev/ps2sdk/ee/lib/libkernel.a(SifStopDma.o)
                              /usr/local/ps2dev/ps2sdk/ee/lib/libkernel.a(SifIopReset.o) (SifStopDma)
/usr/local/ps2dev/ps2sdk/ee/lib/libkernel.a(SifDmaStat.o)
                              /usr/local/ps2dev/ps2sdk/ee/lib/libkernel.a(SifExecModuleBuffer.o) (SifDmaStat)
/usr/local/ps2dev/ps2sdk/ee/lib/libkernel.a(SifSetDma.o)
                              /usr/local/ps2dev/ps2sdk/ee/lib/libkernel.a(SifExecModuleBuffer.o) (SifSetDma)
/usr/local/ps2dev/ps2sdk/ee/lib/libkernel.a(SifSetReg.o)
                              /usr/local/ps2dev/ps2sdk/ee/lib/libkernel.a(SifRpcMain.o) (SifSetReg)
/usr/local/ps2dev/ps2sdk/ee/lib/libkernel.a(SifGetReg.o)
                              /usr/local/ps2dev/ps2sdk/ee/lib/libkernel.a(SifRpcMain.o) (SifGetReg)
/usr/local/ps2dev/ps2sdk/ee/lib/libkernel.a(_SyncDCache.o)
                              /usr/local/ps2dev/ps2sdk/ee/lib/libkernel.a(SyncDCache.o) (_SyncDCache)
/usr/local/ps2dev/ps2sdk/ee/lib/libkernel.a(sif_cmd_send.o)
                              /usr/local/ps2dev/ps2sdk/ee/lib/libkernel.a(SifBindRpc.o) (SifSendCmd)
/usr/local/ps2dev/ps2sdk/ee/lib/libkernel.a(sif_cmd_main.o)
                              /usr/local/ps2dev/ps2sdk/ee/lib/libkernel.a(sif_cmd_addhandler.o) (_sif_cmd_data)
/usr/local/ps2dev/ps2sdk/ee/lib/libkernel.a(sif_sreg_get.o)
                              /usr/local/ps2dev/ps2sdk/ee/lib/libkernel.a(SifRpcMain.o) (SifGetSreg)
/usr/local/ps2dev/ps2sdk/ee/lib/libkernel.a(__fio_internals.o)
                              /usr/local/ps2dev/ps2sdk/ee/lib/libkernel.a(fio_exit.o) (_fio_init)
/usr/local/ps2dev/ps2sdk/ee/lib/libkernel.a(fio_init.o)
                              /usr/local/ps2dev/ps2sdk/ee/lib/libkernel.a(fio_open.o) (fioInit)
/usr/local/ps2dev/ps2sdk/ee/lib/libkernel.a(_fio_intr.o)
                              /usr/local/ps2dev/ps2sdk/ee/lib/libkernel.a(fio_open.o) (_fio_intr)
/usr/local/ps2dev/ps2sdk/ee/lib/libkernel.a(_SifLoadModule.o)
                              /usr/local/ps2dev/ps2sdk/ee/lib/libkernel.a(SifLoadModule.o) (_SifLoadModule)
/usr/local/ps2dev/ps2sdk/ee/lib/libkernel.a(_SifLoadModuleBuffer.o)
                              /usr/local/ps2dev/ps2sdk/ee/lib/libkernel.a(SifExecModuleBuffer.o) (_SifLoadModuleBuffer)
/usr/local/ps2dev/ps2sdk/ee/lib/libkernel.a(_config_internals.o)
                              /usr/local/ps2dev/ps2sdk/ee/lib/libkernel.a(configGetTvScreenType.o) (g_t10KConfig)
/usr/local/ps2dev/ps2sdk/ee/lib/libkernel.a(IsT10K.o)
                              /usr/local/ps2dev/ps2sdk/ee/lib/libkernel.a(configGetTvScreenType.o) (IsT10K)
/usr/local/ps2dev/ps2sdk/ee/lib/libkernel.a(EnableDmac.o)
                              /usr/local/ps2dev/ps2sdk/ee/lib/libkernel.a(sif_cmd_main.o) (EnableDmac)
/usr/local/ps2dev/ps2sdk/ee/lib/libkernel.a(DisableDmac.o)
                              /usr/local/ps2dev/ps2sdk/ee/lib/libkernel.a(sif_cmd_main.o) (DisableDmac)
/usr/local/ps2dev/ps2sdk/ee/lib/libkernel.a(AddDmacHandler.o)
                              /usr/local/ps2dev/ps2sdk/ee/lib/libkernel.a(sif_cmd_main.o) (AddDmacHandler)
/usr/local/ps2dev/ps2sdk/ee/lib/libkernel.a(RemoveDmacHandler.o)
                              /usr/local/ps2dev/ps2sdk/ee/lib/libkernel.a(sif_cmd_main.o) (RemoveDmacHandler)
/usr/local/ps2dev/ps2sdk/ee/lib/libkernel.a(_EnableDmac.o)
                              /usr/local/ps2dev/ps2sdk/ee/lib/libkernel.a(EnableDmac.o) (_EnableDmac)
/usr/local/ps2dev/ps2sdk/ee/lib/libkernel.a(_DisableDmac.o)
                              /usr/local/ps2dev/ps2sdk/ee/lib/libkernel.a(DisableDmac.o) (_DisableDmac)
/usr/local/ps2dev/ps2sdk/ee/lib/libkernel.a(iSifSetDma.o)
                              /usr/local/ps2dev/ps2sdk/ee/lib/libkernel.a(sif_cmd_send.o) (iSifSetDma)
/usr/local/ps2dev/ps2sdk/ee/lib/libkernel.a(SifSetDChain.o)
                              /usr/local/ps2dev/ps2sdk/ee/lib/libkernel.a(sif_cmd_main.o) (SifSetDChain)
/usr/local/ps2dev/ps2sdk/ee/lib/libkernel.a(_sif_cmd_int_handler.o)
                              /usr/local/ps2dev/ps2sdk/ee/lib/libkernel.a(sif_cmd_main.o) (_SifCmdIntHandler)
/usr/local/ps2dev/ps2sdk/ee/lib/libkernel.a(iSifSetDChain.o)
                              /usr/local/ps2dev/ps2sdk/ee/lib/libkernel.a(_sif_cmd_int_handler.o) (iSifSetDChain)
/usr/local/ps2dev/ee/lib/gcc-lib/ee/3.2.2/libgcc.a(_muldi3.o)
                              /usr/local/ps2dev/ps2sdk/ports/lib/libjpeg.a(jcparam.o) (__muldi3)
/usr/local/ps2dev/ee/lib/gcc-lib/ee/3.2.2/libgcc.a(_floatdidf.o)
                              /usr/local/ps2dev/ps2sdk/ports/lib/libpng.a(pngrtran.o) (__floatdidf)
/usr/local/ps2dev/ee/lib/gcc-lib/ee/3.2.2/libgcc.a(_floatdisf.o)
                              /usr/local/ps2dev/ps2sdk/ports/lib/libpng.a(pngget.o) (__floatdisf)
/usr/local/ps2dev/ee/lib/gcc-lib/ee/3.2.2/libgcc.a(_fixunsdfdi.o)
                              /usr/local/ps2dev/ps2sdk/ports/lib/libpng.a(pngrtran.o) (__fixunsdfdi)
/usr/local/ps2dev/ee/lib/gcc-lib/ee/3.2.2/libgcc.a(_fixdfdi.o)
                              /usr/local/ps2dev/ps2sdk/ports/lib/libpng.a(pngset.o) (__fixdfdi)
/usr/local/ps2dev/ee/lib/gcc-lib/ee/3.2.2/libgcc.a(_fixsfdi.o)
                              /usr/local/ps2dev/ps2sdk/ports/lib/libjpeg.a(jidctflt.o) (__fixsfdi)
/usr/local/ps2dev/ee/lib/gcc-lib/ee/3.2.2/libgcc.a(_divdi3.o)
                              /usr/local/ps2dev/ps2sdk/ports/lib/libjpeg.a(jcparam.o) (__divdi3)
/usr/local/ps2dev/ee/lib/gcc-lib/ee/3.2.2/libgcc.a(_moddi3.o)
                              /usr/local/ps2dev/ps2sdk/ports/lib/libjpeg.a(jutils.o) (__moddi3)
/usr/local/ps2dev/ee/lib/gcc-lib/ee/3.2.2/libgcc.a(_udivdi3.o)
                              /usr/local/ps2dev/ps2sdk/ports/lib/libpng.a(png.o) (__udivdi3)
/usr/local/ps2dev/ee/lib/gcc-lib/ee/3.2.2/libgcc.a(_umoddi3.o)
                              /usr/local/ps2dev/ps2sdk/ports/lib/libpng.a(pngrtran.o) (__umoddi3)
/usr/local/ps2dev/ee/lib/gcc-lib/ee/3.2.2/libgcc.a(_sf_to_df.o)
                              obj/gui.o (fptodp)
/usr/local/ps2dev/ee/lib/gcc-lib/ee/3.2.2/libgcc.a(_addsub_df.o)
                              obj/gui.o (dpadd)
/usr/local/ps2dev/ee/lib/gcc-lib/ee/3.2.2/libgcc.a(_mul_df.o)
                              obj/gui.o (dpmul)
/usr/local/ps2dev/ee/lib/gcc-lib/ee/3.2.2/libgcc.a(_div_df.o)
                              /usr/local/ps2dev/ps2sdk/ports/lib/libjpeg.a(jcdctmgr.o) (dpdiv)
/usr/local/ps2dev/ee/lib/gcc-lib/ee/3.2.2/libgcc.a(_compare_df.o)
                              /usr/local/ps2dev/ps2sdk/ports/lib/libpng.a(pngrtran.o) (dpcmp)
/usr/local/ps2dev/ee/lib/gcc-lib/ee/3.2.2/libgcc.a(_si_to_df.o)
                              obj/themes.o (litodp)
/usr/local/ps2dev/ee/lib/gcc-lib/ee/3.2.2/libgcc.a(_df_to_si.o)
                              obj/themes.o (dptoli)
/usr/local/ps2dev/ee/lib/gcc-lib/ee/3.2.2/libgcc.a(_make_df.o)
                              /usr/local/ps2dev/ee/lib/gcc-lib/ee/3.2.2/libgcc.a(_sf_to_df.o) (__make_dp)
/usr/local/ps2dev/ee/lib/gcc-lib/ee/3.2.2/libgcc.a(_df_to_sf.o)
                              obj/gui.o (dptofp)
/usr/local/ps2dev/ee/lib/gcc-lib/ee/3.2.2/libgcc.a(_thenan_df.o)
                              /usr/local/ps2dev/ee/lib/gcc-lib/ee/3.2.2/libgcc.a(_addsub_df.o) (__thenan_df)
/usr/local/ps2dev/ee/lib/gcc-lib/ee/3.2.2/libgcc.a(_df_to_usi.o)
                              /usr/local/ps2dev/ps2sdk/ports/lib/libpng.a(pngrtran.o) (dptoul)
/usr/local/ps2dev/ee/lib/gcc-lib/ee/3.2.2/libgcc.a(_clz.o)
                              /usr/local/ps2dev/ee/lib/gcc-lib/ee/3.2.2/libgcc.a(_divdi3.o) (__clz_tab)
/usr/local/ps2dev/ee/lib/gcc-lib/ee/3.2.2/libgcc.a(_fixunssfdi.o)
                              /usr/local/ps2dev/ee/lib/gcc-lib/ee/3.2.2/libgcc.a(_fixsfdi.o) (__fixunssfdi)
/usr/local/ps2dev/ee/lib/gcc-lib/ee/3.2.2/libgcc.a(_unpack_sf.o)
                              /usr/local/ps2dev/ee/lib/gcc-lib/ee/3.2.2/libgcc.a(_sf_to_df.o) (__unpack_f)
/usr/local/ps2dev/ee/lib/gcc-lib/ee/3.2.2/libgcc.a(_make_sf.o)
                              /usr/local/ps2dev/ee/lib/gcc-lib/ee/3.2.2/libgcc.a(_df_to_sf.o) (__make_fp)
/usr/local/ps2dev/ee/lib/gcc-lib/ee/3.2.2/libgcc.a(_pack_df.o)
                              /usr/local/ps2dev/ee/lib/gcc-lib/ee/3.2.2/libgcc.a(_addsub_df.o) (__pack_d)
/usr/local/ps2dev/ee/lib/gcc-lib/ee/3.2.2/libgcc.a(_unpack_df.o)
                              /usr/local/ps2dev/ee/lib/gcc-lib/ee/3.2.2/libgcc.a(_addsub_df.o) (__unpack_d)
/usr/local/ps2dev/ee/lib/gcc-lib/ee/3.2.2/libgcc.a(_fpcmp_parts_df.o)
                              /usr/local/ps2dev/ee/lib/gcc-lib/ee/3.2.2/libgcc.a(_compare_df.o) (__fpcmp_parts_d)
/usr/local/ps2dev/ee/lib/gcc-lib/ee/3.2.2/libgcc.a(_pack_sf.o)
                              /usr/local/ps2dev/ee/lib/gcc-lib/ee/3.2.2/libgcc.a(_make_sf.o) (__pack_f)

Allocating common symbols
Common symbol       size              file

gETHStartMode       0x4               obj/pad.o
clientSCmd          0x28              /usr/local/ps2dev/ps2sdk/ee/lib/libcdvd.a(_scmd_internals.o)
gAutoRefresh        0x4               obj/pad.o
_rd_intr_data       0x100             /usr/local/ps2dev/ps2sdk/ee/lib/libcdvd.a(_ncmd_internals.o)
usbd_irx            0x4               obj/usbsupport.o
_ih_cd              0x28              /usr/local/ps2dev/ps2sdk/ee/lib/libkernel.a(SifInitIopHeap.o)
curReadPos          0x4               /usr/local/ps2dev/ps2sdk/ee/lib/libcdvd.a(_ncmd_internals.o)
clientInit          0x28              /usr/local/ps2dev/ps2sdk/ee/lib/libcdvd.a(_libcdvd_internals.o)
gVMode              0x4               obj/pad.o
gDefaultTextColor   0x3               obj/pad.o
__stdlib_exit_func  0x80              /usr/local/ps2dev/ps2sdk/ee/lib/libc.a(__stdlib_internals.o)
gETHPrefix          0x20              obj/pad.o
initMode            0x4               /usr/local/ps2dev/ps2sdk/ee/lib/libcdvd.a(_libcdvd_internals.o)
gAutosort           0x4               obj/pad.o
gUSBDelay           0x4               obj/pad.o
gPCPort             0x4               obj/pad.o
gIPConfigChanged    0x4               obj/pad.o
gEnableArt          0x4               obj/pad.o
clientSearchFile    0x28              /usr/local/ps2dev/ps2sdk/ee/lib/libcdvd.a(_libcdvd_internals.o)
ps2_ip              0x10              obj/pad.o
callbackThreadParam
                    0x24              /usr/local/ps2dev/ps2sdk/ee/lib/libcdvd.a(_libcdvd_internals.o)
cdda_st_buf         0x40              /usr/local/ps2dev/ps2sdk/ee/lib/libcdvd.a(_ncmd_internals.o)
clientDiskReady     0x28              /usr/local/ps2dev/ps2sdk/ee/lib/libcdvd.a(_libcdvd_internals.o)
gUSBStartMode       0x4               obj/pad.o
gAPPStartMode       0x4               obj/pad.o
ps2_gateway         0x10              obj/pad.o
cdCallbackNum       0x4               /usr/local/ps2dev/ps2sdk/ee/lib/libcdvd.a(_libcdvd_internals.o)
gDefaultUITextColor
                    0x3               obj/pad.o
__stdio_tmpnam      0x100             /usr/local/ps2dev/ps2sdk/ee/lib/libc.a(stdio.o)
sCmdSendBuff        0x30              /usr/local/ps2dev/ps2sdk/ee/lib/libcdvd.a(_scmd_internals.o)
gHDDStartMode       0x4               obj/pad.o
size_usbd_irx       0x4               obj/usbsupport.o
ps2_netmask         0x10              obj/pad.o
gTheme              0x4               obj/menusys.o
gUpdateEnd          0x4               obj/gui.o
clientNCmd          0x28              /usr/local/ps2dev/ps2sdk/ee/lib/libcdvd.a(_ncmd_internals.o)
gUseInfoScreen      0x4               obj/pad.o
searchFileRecvBuff  0x4               /usr/local/ps2dev/ps2sdk/ee/lib/libcdvd.a(_libcdvd_internals.o)
_lf_cd              0x28              /usr/local/ps2dev/ps2sdk/ee/lib/libkernel.a(SifLoadFileInit.o)
gUpdateList         0x4               obj/gui.o
gsGlobal            0x4               obj/renderman.o
gEnableDandR        0x4               obj/pad.o
gCoverLoadFrames    0x4               obj/pad.o
gVSync              0x4               obj/pad.o
trayReqData         0x4               /usr/local/ps2dev/ps2sdk/ee/lib/libcdvd.a(_libcdvd_internals.o)
cdCallbackFunc      0x4               /usr/local/ps2dev/ps2sdk/ee/lib/libcdvd.a(_libcdvd_internals.o)
tocBuff             0x810             /usr/local/ps2dev/ps2sdk/ee/lib/libcdvd.a(_ncmd_internals.o)
searchFileSendBuff  0x124             /usr/local/ps2dev/ps2sdk/ee/lib/libcdvd.a(_libcdvd_internals.o)
gCheckUSBFragmentation
                    0x4               obj/pad.o
diskReadyMode       0x4               /usr/local/ps2dev/ps2sdk/ee/lib/libcdvd.a(_libcdvd_internals.o)
gDefaultDevice      0x4               obj/pad.o
gRememberLastPlayed
                    0x4               obj/pad.o
gPCShareName        0x20              obj/pad.o
sCmdRecvBuff        0x30              /usr/local/ps2dev/ps2sdk/ee/lib/libcdvd.a(_scmd_internals.o)
gPCUserName         0x20              obj/pad.o
cdThreadParam       0x30              /usr/local/ps2dev/ps2sdk/ee/lib/libcdvd.a(_libcdvd_internals.o)
pc_ip               0x10              obj/pad.o
dummyMode           0x4               /usr/local/ps2dev/ps2sdk/ee/lib/libcdvd.a(_ncmd_internals.o)
_fio_cd             0x28              /usr/local/ps2dev/ps2sdk/ee/lib/libkernel.a(__fio_internals.o)
gNetworkStartup     0x4               obj/pad.o
gWideScreen         0x4               obj/pad.o
readChainData       0x318             /usr/local/ps2dev/ps2sdk/ee/lib/libcdvd.a(_ncmd_internals.o)
gDisableDebug       0x4               obj/pad.o
gHDDSpindown        0x4               obj/pad.o
gExitPath           0x20              obj/pad.o
gUSBPrefix          0x20              obj/pad.o
gHddStartup         0x4               obj/pad.o
gDefaultBgColor     0x3               obj/pad.o
infotxt             0x4               obj/pad.o
readData            0x18              /usr/local/ps2dev/ps2sdk/ee/lib/libcdvd.a(_ncmd_internals.o)
guiInactiveFrames   0x4               obj/menusys.o
readStreamData      0x14              /usr/local/ps2dev/ps2sdk/ee/lib/libcdvd.a(_ncmd_internals.o)
gPCPassword         0x20              obj/pad.o
guiFrameId          0x4               obj/menusys.o
gBaseMCDir          0x4               obj/pad.o
getTocSendBuff      0xc               /usr/local/ps2dev/ps2sdk/ee/lib/libcdvd.a(_ncmd_internals.o)
guiThreadID         0x4               obj/renderman.o
_fio_intr_data      0x80              /usr/local/ps2dev/ps2sdk/ee/lib/libkernel.a(__fio_internals.o)
nCmdRecvBuff        0x30              /usr/local/ps2dev/ps2sdk/ee/lib/libcdvd.a(_ncmd_internals.o)
gETHOpMode          0x4               obj/pad.o
gScrollSpeed        0x4               obj/pad.o
seekSector          0x4               /usr/local/ps2dev/ps2sdk/ee/lib/libcdvd.a(_ncmd_internals.o)
_fio_block_mode     0x4               /usr/local/ps2dev/ps2sdk/ee/lib/libkernel.a(__fio_internals.o)
__stdlib_env        0x4000            /usr/local/ps2dev/ps2sdk/ee/lib/libc.a(__stdlib_internals.o)
nCmdSendBuff        0x30              /usr/local/ps2dev/ps2sdk/ee/lib/libcdvd.a(_ncmd_internals.o)
gDefaultSelTextColor
                    0x3               obj/pad.o
_fio_recv_data      0x800             /usr/local/ps2dev/ps2sdk/ee/lib/libkernel.a(__fio_internals.o)

Memory Configuration

Name             Origin             Length             Attributes
*default*        0x0000000000000000 0xffffffffffffffff

Linker script and memory map

LOAD /usr/local/ps2dev/ee/lib/gcc-lib/ee/3.2.2/crti.o
LOAD /usr/local/ps2dev/ee/lib/gcc-lib/ee/3.2.2/crtbegin.o
LOAD /usr/local/ps2dev/ps2sdk/ee/startup/crt0.o
LOAD obj/pad.o
LOAD obj/fntsys.o
LOAD obj/renderman.o
LOAD obj/menusys.o
LOAD obj/OSDHistory.o
LOAD obj/system.o
LOAD obj/debug.o
LOAD obj/lang.o
LOAD obj/config.o
LOAD obj/hdd.o
LOAD obj/dialogs.o
LOAD obj/dia.o
LOAD obj/ioman.o
LOAD obj/texcache.o
LOAD obj/themes.o
LOAD obj/supportbase.o
LOAD obj/usbsupport.o
LOAD obj/ethsupport.o
LOAD obj/hddsupport.o
LOAD obj/appsupport.o
LOAD obj/gui.o
LOAD obj/textures.o
LOAD obj/opl.o
LOAD obj/atlas.o
LOAD obj/usb_icon.o
LOAD obj/hdd_icon.o
LOAD obj/eth_icon.o
LOAD obj/app_icon.o
LOAD obj/cross_icon.o
LOAD obj/triangle_icon.o
LOAD obj/circle_icon.o
LOAD obj/square_icon.o
LOAD obj/select_icon.o
LOAD obj/start_icon.o
LOAD obj/left_icon.o
LOAD obj/right_icon.o
LOAD obj/up_icon.o
LOAD obj/down_icon.o
LOAD obj/L1_icon.o
LOAD obj/L2_icon.o
LOAD obj/R1_icon.o
LOAD obj/R2_icon.o
LOAD obj/load0.o
LOAD obj/load1.o
LOAD obj/load2.o
LOAD obj/load3.o
LOAD obj/load4.o
LOAD obj/load5.o
LOAD obj/load6.o
LOAD obj/load7.o
LOAD obj/logo.o
LOAD obj/freesans.o
LOAD obj/icon_sys.o
LOAD obj/icon_icn.o
LOAD obj/icon_sys_A.o
LOAD obj/icon_sys_J.o
LOAD obj/ee_core.o
LOAD obj/alt_ee_core.o
LOAD obj/elfldr.o
LOAD obj/imgdrv.o
LOAD obj/eesync.o
LOAD obj/usb_cdvdman.o
LOAD obj/usb_4Ksectors_cdvdman.o
LOAD obj/smb_cdvdman.o
LOAD obj/smb_pcmcia_cdvdman.o
LOAD obj/hdd_cdvdman.o
LOAD obj/hdd_pcmcia_cdvdman.o
LOAD obj/hdd_hdpro_cdvdman.o
LOAD obj/cdvdfsv.o
LOAD obj/usbd_ps2.o
LOAD obj/usbd_ps3.o
LOAD obj/usbhdfsd.o
LOAD obj/cddev.o
LOAD obj/ps2dev9.o
LOAD obj/smsutils.o
LOAD obj/smstcpip.o
LOAD obj/ingame_smstcpip.o
LOAD obj/smap.o
LOAD obj/smap_ingame.o
LOAD obj/smbman.o
LOAD obj/discid.o
LOAD obj/ps2atad.o
LOAD obj/hdpro_atad.o
LOAD obj/poweroff.o
LOAD obj/ps2hdd.o
LOAD obj/genvmc.o
LOAD obj/hdldsvr.o
LOAD obj/udptty.o
LOAD obj/iomanx.o
LOAD obj/filexio.o
LOAD obj/ps2fs.o
LOAD obj/util.o
LOAD obj/ioptrap.o
LOAD obj/ps2link.o
LOAD /usr/local/ps2dev/gsKit/lib/libgskit.a
LOAD /usr/local/ps2dev/gsKit/lib/libdmakit.a
LOAD /usr/local/ps2dev/gsKit/lib/libgskit_toolkit.a
LOAD /usr/local/ps2dev/ps2sdk/ee/lib/libpoweroff.a
LOAD /usr/local/ps2dev/ps2sdk/ee/lib/libfileXio.a
LOAD /usr/local/ps2dev/ps2sdk/ee/lib/libpatches.a
LOAD /usr/local/ps2dev/ps2sdk/ee/lib/libpad.a
LOAD /usr/local/ps2dev/ps2sdk/ports/lib/libjpeg.a
LOAD /usr/local/ps2dev/ps2sdk/ports/lib/libpng.a
LOAD /usr/local/ps2dev/ps2sdk/ports/lib/libz.a
LOAD /usr/local/ps2dev/ps2sdk/ee/lib/libdebug.a
LOAD /usr/local/ps2dev/ee/lib/gcc-lib/ee/3.2.2/../../../../ee/lib/libm.a
LOAD /usr/local/ps2dev/ps2sdk/ee/lib/libmc.a
LOAD /usr/local/ps2dev/ps2sdk/ports/lib/libfreetype.a
LOAD /usr/local/ps2dev/ps2sdk/ee/lib/libvux.a
LOAD /usr/local/ps2dev/ps2sdk/ee/lib/libcdvd.a
LOAD /usr/local/ps2dev/ps2sdk/ee/lib/libc.a
LOAD /usr/local/ps2dev/ps2sdk/ee/lib/libkernel.a
LOAD /usr/local/ps2dev/ee/lib/gcc-lib/ee/3.2.2/libgcc.a
LOAD /usr/local/ps2dev/ee/lib/gcc-lib/ee/3.2.2/libgcc.a
LOAD /usr/local/ps2dev/ee/lib/gcc-lib/ee/3.2.2/crtend.o
LOAD /usr/local/ps2dev/ee/lib/gcc-lib/ee/3.2.2/crtn.o

.text           0x0000000000100000    0xa8d30
                0x0000000000100000                _ftext = .
 *(.text)
 .text          0x0000000000100000       0xd8 /usr/local/ps2dev/ee/lib/gcc-lib/ee/3.2.2/crtbegin.o
 .text          0x00000000001000d8      0x1c0 /usr/local/ps2dev/ps2sdk/ee/startup/crt0.o
                0x00000000001000e0                _start
                0x00000000001001e0                _exit
 .text          0x0000000000100298      0x938 obj/pad.o
                0x0000000000100958                unloadPads
                0x00000000001008b8                getKeyPressed
                0x0000000000100818                getKeyOn
                0x0000000000100b98                padRestoreSettings
                0x00000000001008e0                setButtonDelay
                0x0000000000100750                getKey
                0x0000000000100868                getKeyOff
                0x0000000000100618                readPads
                0x0000000000100b60                padStoreSettings
                0x0000000000100a28                startPads
                0x0000000000100908                getButtonDelay
 .text          0x0000000000100bd0     0x1190 obj/fntsys.o
                0x00000000001016a8                fntRenderString
                0x0000000000101588                fntSetAspectRatio
                0x00000000001011b8                fntLoadDefault
                0x00000000001019b0                fntFitString
                0x00000000001012a8                fntEnd
                0x0000000000101b18                fntCalcDimensions
                0x0000000000101ce0                utf8Decode
                0x0000000000101090                fntInit
                0x0000000000100f28                fntRelease
                0x0000000000101148                fntLoadFile
 .text          0x0000000000101d60     0x1400 obj/renderman.o
                0x0000000000102ae8                rmDrawOverlayPixmap
                0x00000000001030f0                rmResetShiftRatio
                0x0000000000102db0                rmDrawRect
                0x00000000001026f0                rmEnd
                0x0000000000103038                rmSetAspectRatio
                0x0000000000102180                rmFlush
                0x0000000000103108                rmApplyShiftRatio
                0x00000000001029b0                rmDrawQuad
                0x0000000000103070                rmGetAspectRatio
                0x00000000001030d0                rmSetShiftRatio
                0x0000000000103148                rmSetTransposition
                0x0000000000102aa8                rmDrawPixmap
                0x0000000000102120                rmPrepareTexture
                0x0000000000102418                rmSetMode
                0x00000000001026d0                rmGetScreenExtents
                0x0000000000102710                rmSetupQuad
                0x0000000000102338                rmInit
                0x0000000000102158                rmDispatch
                0x00000000001021f8                rmStartFrame
                0x0000000000102f48                rmDrawLine
                0x0000000000103050                rmResetAspectRatio
                0x0000000000102208                rmEndFrame
                0x0000000000103090                rmApplyAspectRatio
 .text          0x0000000000103160     0x15d8 obj/menusys.o
                0x0000000000103a10                menuAddHint
                0x0000000000103530                menuInit
                0x0000000000103f98                menuSetSelectedItem
                0x0000000000103b90                submenuSort
                0x0000000000103720                submenuRebuildCache
                0x0000000000104300                menuRenderMain
                0x0000000000103af0                menuItemGetText
                0x0000000000103938                submenuRemoveItem
                0x00000000001045a0                menuRenderInfo
                0x0000000000103868                submenuAppendItem
                0x0000000000103318                menuLoadConfig
                0x0000000000103aa8                menuRemoveHints
                0x00000000001039c8                submenuDestroy
                0x0000000000103378                menuSaveConfig
                0x0000000000103510                menuReinitMainMenu
                0x0000000000104620                menuHandleInputInfo
                0x0000000000103b28                submenuItemGetText
                0x0000000000103680                menuAppendItem
                0x0000000000103fd0                menuRenderMenu
                0x00000000001040e8                menuHandleInputMenu
                0x00000000001035a8                menuEnd
                0x0000000000104370                menuHandleInputMain
 .text          0x0000000000104738      0x748 obj/OSDHistory.o
                0x00000000001048a8                SaveHistoryFile
                0x0000000000104818                LoadHistoryFile
                0x0000000000104938                AddOldHistoryFileRecord
                0x00000000001049d8                AddHistoryRecord
                0x0000000000104738                CreateSystemDataFolder
                0x0000000000104e58                AddHistoryRecordUsingFullPath
 .text          0x0000000000104e80      0xf80 obj/system.o
                0x0000000000105c28                sysExecElf
                0x0000000000105100                sysPowerOff
                0x0000000000105680                sysGetCDVDFSV
                0x0000000000105480                sysGetDiscID
                0x0000000000105220                sysSetIPConfig
                0x00000000001059a8                sysLaunchLoaderElf
                0x0000000000104f58                sysReset
                0x00000000001053d0                USBA_crc32
                0x0000000000105120                delay
                0x0000000000105640                sysPcmciaCheck
                0x0000000000104e80                sysLoadModuleBuffer
                0x0000000000105d60                sysCheckMC
                0x0000000000105170                sysPS3Detect
                0x00000000001056a0                sysExecExit
 .text          0x0000000000105e00      0x130 obj/debug.o
                0x0000000000105e00                debugSetActive
 .text          0x0000000000105f30      0x5e8 obj/lang.o
                0x0000000000106468                lngGetGuiValue
                0x0000000000106478                lngFindGuiID
                0x0000000000106140                lngGetValue
                0x0000000000106288                lngInit
                0x0000000000105f30                _l
                0x00000000001063d8                lngSetGuiValue
                0x0000000000106508                lngGetGuiList
                0x0000000000106350                lngEnd
 .text          0x0000000000106518     0x1138 obj/config.o
                0x0000000000106a38                configAlloc
                0x0000000000106c50                configGetStr
                0x0000000000106908                configInit
                0x0000000000106dd0                configSetColor
                0x00000000001073a0                configWrite
                0x0000000000107508                configReadMulti
                0x0000000000106d70                configGetInt
                0x00000000001075a8                configWriteMulti
                0x0000000000106b58                configSetStr
                0x0000000000106600                isWS
                0x0000000000106d18                configSetInt
                0x0000000000106ae8                configFree
                0x0000000000107018                configWriteIP
                0x0000000000106f58                configReadIP
                0x0000000000106e30                configGetColor
                0x00000000001070e8                configGetDiscIDBinary
                0x0000000000106e78                configRemoveKey
                0x00000000001069e8                configEnd
                0x0000000000106b20                configGetByType
                0x00000000001071d8                configRead
                0x0000000000106cc8                configGetStrCopy
                0x00000000001074b0                configClear
 .text          0x0000000000107650     0x1410 obj/hdd.o
                0x00000000001076a0                hddGetTotalSectors
                0x00000000001076d8                hddIs48bit
                0x0000000000107710                hddSetTransferMode
                0x0000000000108628                hddGetHDLGamelist
                0x00000000001078a8                hddGetFormat
                0x00000000001089c8                hddDeleteHDLGame
                0x00000000001088c8                hddSetHDLGameInfo
                0x0000000000107650                hddCheck
                0x0000000000107758                hddSetIdleTimeout
                0x0000000000108848                hddFreeHDLGamelist
 .text          0x0000000000108a60     0x1df0 obj/dia.o
                0x0000000000109ad0                diaRenderUI
                0x0000000000108ae8                diaShowKeyb
                0x000000000010a1e0                diaExecuteDialog
                0x000000000010a728                diaSetU64Color
                0x000000000010a658                diaGetColor
                0x000000000010a6c0                diaSetColor
                0x000000000010a510                diaSetInt
                0x000000000010a5e0                diaSetString
                0x000000000010a800                diaSetEnum
                0x000000000010a580                diaGetString
                0x000000000010a7a0                diaSetLabel
                0x000000000010a470                diaSetEnabled
                0x000000000010a4a0                diaGetInt
 .text          0x000000000010a850      0x8a0 obj/ioman.o
                0x000000000010acd0                ioPutRequest
                0x000000000010afc8                ioPrintf
                0x000000000010b048                ioBlockOps
                0x000000000010aed0                ioGetPendingRequestCount
                0x000000000010ada0                ioRemoveRequests
                0x000000000010af08                ioHasPendingRequests
                0x000000000010ae88                ioEnd
                0x000000000010a850                ioRegisterHandler
                0x000000000010ab30                ioInit
 .text          0x000000000010b0f0      0x4b0 obj/texcache.o
                0x000000000010b408                cacheGetTexture
                0x000000000010b200                cacheEnd
                0x000000000010b1d8                cacheInit
                0x000000000010b278                cacheInitCache
                0x000000000010b380                cacheDestroyCache
 .text          0x000000000010b5a0     0x3b30 obj/themes.o
                0x000000000010ef98                thmGetGuiValue
                0x000000000010eec8                thmGetValue
                0x000000000010eee8                thmSetGuiValue
                0x000000000010efa8                thmFindGuiID
                0x000000000010eea0                thmReloadScreenExtents
                0x000000000010e158                thmGetTexture
                0x000000000010ec78                thmAddElements
                0x000000000010ed80                thmReinit
                0x000000000010f038                thmGetGuiList
                0x000000000010ed30                thmInit
                0x000000000010f048                thmEnd
 .text          0x000000000010f0d0      0xe18 obj/supportbase.o
                0x000000000010fa40                sbDelete
                0x000000000010f0d0                sbIsSameSize
                0x000000000010f328                sbReadList
                0x000000000010f6a0                sbPrepare
                0x000000000010fb90                sbRename
                0x000000000010fdb8                sbPopulateConfig
 .text          0x000000000010fee8      0xbe8 obj/usbsupport.o
                0x00000000001100c0                usbLoadModules
                0x000000000010fee8                usbFindPartition
                0x0000000000110298                usbGetObject
                0x00000000001101f0                usbInit
 .text          0x0000000000110ad0     0x10c8 obj/ethsupport.o
                0x0000000000111040                ethInit
                0x0000000000110d90                ethSMBDisconnect
                0x0000000000111158                ethGetObject
                0x0000000000110ad0                ethSMBConnect
 .text          0x0000000000111b98      0xaf8 obj/hddsupport.o
                0x0000000000111f58                hddGetObject
                0x0000000000111d50                hddLoadModules
                0x0000000000111ee0                hddInit
 .text          0x0000000000112690      0x5d8 obj/appsupport.o
                0x00000000001127a0                appGetObject
                0x0000000000112728                appInit
 .text          0x0000000000112c68     0x2c40 obj/gui.o
                0x00000000001155e0                guiMsgBox
                0x0000000000112f10                guiUnlock
                0x0000000000115310                guiMainLoop
                0x0000000000113e58                guiShowCompatConfig
                0x0000000000114bc8                guiDrawBGPlasma
                0x00000000001153f8                guiSwitchScreen
                0x0000000000113940                guiShowIPConfig
                0x0000000000113de8                guiAltStartupNameHandler
                0x0000000000113068                guiShowConfig
                0x00000000001157b0                guiHandleDeferedIO
                0x0000000000115570                guiUpdateScreenScale
                0x00000000001135b0                guiShowUIConfig
                0x0000000000112f98                guiEndFrame
                0x0000000000115230                guiIntroLoop
                0x0000000000114e80                guiDrawIconAndText
                0x0000000000112ea0                guiEnd
                0x0000000000112c68                guiReloadScreenExtents
                0x0000000000115810                guiRenderTextScreen
                0x00000000001154a8                guiOpCreate
                0x00000000001154f8                guiUpdateScrollSpeed
                0x0000000000112f30                guiStartFrame
                0x0000000000112c90                guiInit
                0x0000000000113d38                guiShowKeyboard
                0x00000000001142f8                guiGetOpCompleted
                0x0000000000112ff8                guiShowAbout
                0x0000000000114310                guiDeferUpdate
                0x00000000001153e8                guiSetFrameHook
                0x0000000000112ef0                guiLock
 .text          0x00000000001158a8      0x9b8 obj/textures.o
                0x00000000001158e0                texDiscoverLoad
                0x0000000000115cb0                texPngLoad
                0x00000000001160c8                texJpgLoad
                0x00000000001158b8                texPrepare
 .text          0x0000000000116260     0x2178 obj/opl.o
                0x0000000000117a70                saveConfig
                0x0000000000117b28                loadHdldSvr
                0x0000000000117c70                unloadHdldSvr
                0x00000000001178f8                applyConfig
                0x0000000000117a10                loadConfig
                0x0000000000116cd0                menuDeferredUpdate
                0x0000000000116e80                setErrorMessage
                0x0000000000118278                main
                0x0000000000117e18                shutdown
                0x0000000000117cd8                handleHdlSrv
                0x00000000001162a8                moduleUpdateMenu
 .text          0x00000000001183d8      0x4e8 obj/atlas.o
                0x0000000000118660                atlasFree
                0x0000000000118590                atlasNew
                0x00000000001187f8                atlasPlace
 .text          0x00000000001188c0      0xa80 obj/util.o
                0x0000000000118be8                readFile
                0x0000000000118df8                openFileBuffer
                0x0000000000118ce0                checkCreateDir
                0x00000000001191f8                toHex
                0x0000000000118b98                openFile
                0x0000000000119080                writeFileBuffer
                0x0000000000118d28                listDir
                0x00000000001191b0                fromHex
                0x0000000000118e98                readFileBuffer
                0x0000000000119320                max
                0x0000000000119300                GetSystemDataPath
                0x0000000000119310                GetSystemFolderLetter
                0x0000000000119330                min
                0x00000000001188c0                getFileSize
                0x0000000000119140                closeFileBuffer
                0x0000000000119258                InitConsoleRegionData
 .text          0x0000000000119340     0x12a0 /usr/local/ps2dev/gsKit/lib/libgskit.a(gsCore.o)
                0x000000000011a120                gsKit_set_drawfield
                0x00000000001195c0                gsKit_unlock_buffer
                0x0000000000119b40                gsKit_set_clamp
                0x000000000011a238                gsKit_set_finish
                0x00000000001196b0                gsKit_get_field
                0x00000000001196d0                gsKit_hsync_wait
                0x0000000000119978                gsKit_set_test
                0x00000000001195b0                gsKit_lock_buffer
                0x000000000011a4f8                gsKit_queue_reset
                0x0000000000119340                gsKit_vram_alloc
                0x0000000000119698                gsKit_vsync_nowait
                0x0000000000119588                gsKit_finish
                0x0000000000119630                gsKit_switch_context
                0x00000000001193b8                gsKit_vram_clear
                0x0000000000119708                gsKit_add_vsync_handler
                0x000000000011a3a0                gsKit_queue_exec_real
                0x0000000000119da0                gsKit_set_texfilter
                0x0000000000119e90                gsKit_set_dither_matrix
                0x00000000001193c8                gsKit_sync_flip
                0x00000000001195c8                gsKit_lock_status
                0x000000000011a5c8                gsKit_mode_switch
                0x0000000000119480                gsKit_setactive
                0x0000000000119798                gsKit_clear
                0x0000000000119758                gsKit_remove_vsync_handler
                0x000000000011a018                gsKit_set_dither
                0x0000000000119660                gsKit_vsync_wait
                0x000000000011a548                gsKit_queue_exec
                0x0000000000119ca8                gsKit_set_primalpha
                0x00000000001195d8                gsKit_display_buffer
 .text          0x000000000011a5e0      0xda8 /usr/local/ps2dev/gsKit/lib/libgskit.a(gsInit.o)
                0x000000000011a5e0                gsKit_detect_signal
                0x000000000011a610                gsKit_set_buffer_attributes
                0x000000000011a828                gsKit_init_screen
                0x000000000011afa8                gsKit_init_global_custom
                0x000000000011b2d0                gsKit_deinit_global
 .text          0x000000000011b388       0x60 /usr/local/ps2dev/gsKit/lib/libgskit.a(gsMisc.o)
                0x000000000011b3e0                gsKit_vram_dump
                0x000000000011b388                gsKit_setup_tbw
 .text          0x000000000011b3e8     0x2000 /usr/local/ps2dev/gsKit/lib/libgskit.a(gsPrimitive.o)
                0x000000000011bbd8                gsKit_prim_line_strip_3d
                0x000000000011c030                gsKit_prim_triangle_3d
                0x000000000011c268                gsKit_prim_triangle_strip
                0x000000000011b3e8                gsKit_prim_point
                0x000000000011be40                gsKit_prim_sprite
                0x000000000011c710                gsKit_prim_triangle_fan
                0x000000000011c950                gsKit_prim_triangle_fan_3d
                0x000000000011cbb8                gsKit_prim_triangle_gouraud_3d
                0x000000000011b588                gsKit_prim_line_3d
                0x000000000011c4a8                gsKit_prim_triangle_strip_3d
                0x000000000011b998                gsKit_prim_line_strip
                0x000000000011ce40                gsKit_prim_quad_3d
                0x000000000011d0f8                gsKit_prim_quad_gouraud_3d
                0x000000000011b788                gsKit_prim_line_goraud_3d
 .text          0x000000000011d3e8     0x37c0 /usr/local/ps2dev/gsKit/lib/libgskit.a(gsTexture.o)
                0x000000000011fcf8                gsKit_prim_triangle_fan_texture_3d
                0x000000000011ec68                gsKit_prim_triangle_goraud_texture_3d
                0x000000000011f918                gsKit_prim_triangle_fan_texture
                0x0000000000120640                gsKit_prim_quad_goraud_texture_3d
                0x000000000011e7c0                gsKit_prim_triangle_texture_3d
                0x000000000011d478                gsKit_texture_size
                0x000000000011f510                gsKit_prim_triangle_strip_texture_3d
                0x0000000000120100                gsKit_prim_quad_texture_3d
                0x000000000011d538                gsKit_texture_send
                0x000000000011e118                gsKit_prim_sprite_striped_texture_3d
                0x000000000011f130                gsKit_prim_triangle_strip_texture
                0x000000000011d3e8                gsKit_texture_size_ee
                0x000000000011dc08                gsKit_texture_upload
                0x000000000011dce0                gsKit_prim_sprite_texture_3d
                0x000000000011d820                gsKit_texture_send_inline
 .text          0x0000000000120ba8      0x540 /usr/local/ps2dev/gsKit/lib/libdmakit.a(dmaCore.o)
                0x0000000000120ba8                dmaKit_wait
                0x0000000000120fb8                dmaKit_send_chain_spr
                0x0000000000120f28                dmaKit_send_chain_ucab
                0x0000000000120c80                dmaKit_send
                0x0000000000120d48                dmaKit_send_ucab
                0x0000000000121048                dmaKit_get_spr
                0x0000000000120c40                dmaKit_wait_fast
                0x0000000000120dd8                dmaKit_send_spr
                0x0000000000120e68                dmaKit_send_chain
 .text          0x00000000001210e8      0x198 /usr/local/ps2dev/gsKit/lib/libdmakit.a(dmaInit.o)
                0x00000000001210e8                dmaKit_init
                0x0000000000121178                dmaKit_chan_init
 .text          0x0000000000121280      0x310 /usr/local/ps2dev/ps2sdk/ee/lib/libpoweroff.a(poweroff.o)
                0x00000000001214f8                poweroffSetCallback
                0x0000000000121538                poweroffShutdown
                0x00000000001212f8                poweroffInit
 .text          0x0000000000121590     0x2138 /usr/local/ps2dev/ps2sdk/ee/lib/libfileXio.a(fileXio_rpc.o)
                0x0000000000121fa0                fileXioRename
                0x0000000000121cd8                fileXioMkdir
                0x0000000000123688                _lock
                0x00000000001221a0                fileXioReadlink
                0x0000000000123100                fileXioDread
                0x0000000000122e50                fileXioSync
                0x0000000000121dd0                fileXioRmdir
                0x00000000001224b8                fileXioClose
                0x0000000000123030                fileXioDclose
                0x0000000000122f48                fileXioDopen
                0x00000000001223b0                fileXioOpen
                0x0000000000123678                fileXioSetBlockMode
                0x00000000001215b0                _fxio_intr
                0x0000000000123270                fileXioDevctl
                0x00000000001222c8                fileXioChdir
                0x0000000000122bf8                fileXioGetStat
                0x00000000001235c8                fileXioWaitAsync
                0x0000000000123420                fileXioIoctl2
                0x0000000000121ae0                fileXioUmount
                0x0000000000122ad0                fileXioChStat
                0x00000000001215d0                fileXioInit
                0x00000000001228b8                fileXioLseek
                0x0000000000122d10                fileXioFormat
                0x00000000001219d0                fileXioMount
                0x00000000001217d8                fileXioGetDeviceList
                0x00000000001229b0                fileXioLseek64
                0x0000000000122768                fileXioWrite
                0x0000000000121788                fileXioStop
                0x0000000000121eb8                fileXioRemove
                0x00000000001236a8                _unlock
                0x0000000000121bc8                fileXioCopyfile
                0x0000000000122620                fileXioRead
                0x00000000001218b8                fileXioGetdir
                0x00000000001220a0                fileXioSymlink
 .text          0x00000000001236c8      0x238 /usr/local/ps2dev/ps2sdk/ee/lib/libpatches.a(patch_enable_lmb.o)
                0x00000000001236c8                sbv_patch_enable_lmb
 .text          0x0000000000123900       0x70 /usr/local/ps2dev/ps2sdk/ee/lib/libpatches.a(patch_disable_prefix_check.o)
                0x0000000000123900                sbv_patch_disable_prefix_check
 .text          0x0000000000123970      0x148 /usr/local/ps2dev/ps2sdk/ee/lib/libpatches.a(patch_fioremove.o)
                0x0000000000123970                sbv_patch_fioremove
 .text          0x0000000000123ab8      0x110 /usr/local/ps2dev/ps2sdk/ee/lib/libpatches.a(smem.o)
                0x0000000000123ab8                smem_read
                0x0000000000123b40                smem_write
 .text          0x0000000000123bc8       0xf8 /usr/local/ps2dev/ps2sdk/ee/lib/libpatches.a(smod.o)
                0x0000000000123bc8                smod_get_next_mod
                0x0000000000123c18                smod_get_mod_by_name
 .text          0x0000000000123cc0      0x2c0 /usr/local/ps2dev/ps2sdk/ee/lib/libpatches.a(slib.o)
                0x0000000000123d08                slib_exp_lib_list
                0x0000000000123e48                slib_get_exp_lib
                0x0000000000123cc0                __memcmp
 .text          0x0000000000123f80      0xc88 /usr/local/ps2dev/ps2sdk/ee/lib/libpad.a(libpad.o)
                0x0000000000124838                padEnterPressMode
                0x0000000000124878                padGetButtonMask
                0x0000000000124a78                padSetActAlign
                0x0000000000124858                padExitPressMode
                0x0000000000124688                padInfoMode
                0x0000000000124008                padInit
                0x0000000000124c00                padGetConnection
                0x0000000000124550                padReqStateInt2String
                0x0000000000124b58                padSetActDirect
                0x0000000000124808                padInfoPressMode
                0x00000000001244d8                padSetReqState
                0x0000000000124508                padStateInt2String
                0x0000000000124208                padPortOpen
                0x00000000001249b0                padInfoAct
                0x0000000000124748                padSetMainMode
                0x00000000001248f8                padSetButtonInfo
                0x0000000000124340                padPortClose
                0x0000000000123fe8                padReset
                0x00000000001243f8                padRead
                0x0000000000124188                padEnd
                0x0000000000124598                padGetPortMax
                0x0000000000124440                padGetState
                0x0000000000124608                padGetSlotMax
                0x0000000000124680                padGetModVersion
                0x00000000001244b8                padGetReqState
 .text          0x0000000000124c08     0x1140 /usr/local/ps2dev/ps2sdk/ports/lib/libjpeg.a(libjpg.o)
                0x0000000000124f78                jpgOpen
                0x0000000000125650                jpgScreenshot
                0x0000000000125330                _dest_term_destination
                0x0000000000125ae0                jpgOpenFILE
                0x0000000000124c30                custom_error_exit
                0x0000000000124c10                _src_fill_input_buffer
                0x0000000000124c08                _src_init_source
                0x0000000000124c68                custom_emit_message
                0x0000000000124cf8                jpgOpenRAW
                0x0000000000125398                jpgCreateRAW
                0x0000000000124c28                _src_term_source
                0x0000000000125068                jpgReadImage
                0x0000000000124c18                _src_skip_input_data
                0x0000000000125200                _dest_init_destination
                0x00000000001255f8                jpgClose
                0x0000000000125208                _dest_empty_output_buffer
                0x0000000000124c20                _src_resync_to_restart
                0x0000000000125530                jpgCompressImageRAW
 .text          0x0000000000125d48      0x5c0 /usr/local/ps2dev/ps2sdk/ports/lib/libjpeg.a(jcapimin.o)
                0x0000000000126248                jpeg_write_m_byte
                0x00000000001260e0                jpeg_write_marker
                0x0000000000125ec8                jpeg_suppress_tables
                0x0000000000125ea8                jpeg_abort_compress
                0x0000000000125e88                jpeg_destroy_compress
                0x0000000000126270                jpeg_write_tables
                0x0000000000125d48                jpeg_CreateCompress
                0x0000000000125f20                jpeg_finish_compress
                0x00000000001261b8                jpeg_write_m_header
 .text          0x0000000000126308      0x368 /usr/local/ps2dev/ps2sdk/ports/lib/libjpeg.a(jcapistd.o)
                0x0000000000126510                jpeg_write_raw_data
                0x0000000000126308                jpeg_start_compress
                0x00000000001263d0                jpeg_write_scanlines
 .text          0x0000000000126670      0xcf8 /usr/local/ps2dev/ps2sdk/ports/lib/libjpeg.a(jcparam.o)
                0x0000000000126c68                jpeg_set_colorspace
                0x0000000000126850                jpeg_quality_scaling
                0x00000000001270b8                jpeg_simple_progression
                0x00000000001267e0                jpeg_set_linear_quality
                0x0000000000126a80                jpeg_set_defaults
                0x0000000000126670                jpeg_add_quant_table
                0x0000000000126bb0                jpeg_default_colorspace
                0x00000000001268a8                jpeg_set_quality
 .text          0x0000000000127368      0x120 /usr/local/ps2dev/ps2sdk/ports/lib/libjpeg.a(jcinit.o)
                0x0000000000127368                jinit_compress_master
 .text          0x0000000000127488     0x10a8 /usr/local/ps2dev/ps2sdk/ports/lib/libjpeg.a(jcmaster.o)
                0x0000000000128440                jinit_c_master_control
 .text          0x0000000000128530      0xcb8 /usr/local/ps2dev/ps2sdk/ports/lib/libjpeg.a(jcmarker.o)
                0x0000000000129158                jinit_marker_writer
 .text          0x00000000001291e8      0x270 /usr/local/ps2dev/ps2sdk/ports/lib/libjpeg.a(jcmainct.o)
                0x0000000000129370                jinit_c_main_controller
 .text          0x0000000000129458      0x860 /usr/local/ps2dev/ps2sdk/ports/lib/libjpeg.a(jcprepct.o)
                0x0000000000129b80                jinit_c_prep_controller
 .text          0x0000000000129cb8      0xa58 /usr/local/ps2dev/ps2sdk/ports/lib/libjpeg.a(jccoefct.o)
                0x000000000012a5d8                jinit_c_coef_controller
 .text          0x000000000012a710      0x808 /usr/local/ps2dev/ps2sdk/ports/lib/libjpeg.a(jccolor.o)
                0x000000000012ac38                jinit_color_converter
 .text          0x000000000012af18      0xd30 /usr/local/ps2dev/ps2sdk/ports/lib/libjpeg.a(jcsample.o)
                0x000000000012b9f8                jinit_downsampler
 .text          0x000000000012bc48     0x1598 /usr/local/ps2dev/ps2sdk/ports/lib/libjpeg.a(jchuff.o)
                0x000000000012cb10                jpeg_gen_optimal_table
                0x000000000012d010                jinit_huff_encoder
                0x000000000012be70                jpeg_make_c_derived_tbl
 .text          0x000000000012d1e0     0x1270 /usr/local/ps2dev/ps2sdk/ports/lib/libjpeg.a(jcphuff.o)
                0x000000000012e288                jinit_phuff_encoder
 .text          0x000000000012e450      0x828 /usr/local/ps2dev/ps2sdk/ports/lib/libjpeg.a(jcdctmgr.o)
                0x000000000012eb80                jinit_forward_dct
 .text          0x000000000012ec78      0x350 /usr/local/ps2dev/ps2sdk/ports/lib/libjpeg.a(jfdctfst.o)
                0x000000000012ec78                jpeg_fdct_ifast
 .text          0x000000000012efc8      0x260 /usr/local/ps2dev/ps2sdk/ports/lib/libjpeg.a(jfdctflt.o)
                0x000000000012efc8                jpeg_fdct_float
 .text          0x000000000012f228      0x538 /usr/local/ps2dev/ps2sdk/ports/lib/libjpeg.a(jfdctint.o)
                0x000000000012f228                jpeg_fdct_islow
 .text          0x000000000012f760      0x760 /usr/local/ps2dev/ps2sdk/ports/lib/libjpeg.a(jdapimin.o)
                0x000000000012f8c8                jpeg_abort_decompress
                0x000000000012f8a8                jpeg_destroy_decompress
                0x000000000012f760                jpeg_CreateDecompress
                0x000000000012fd40                jpeg_has_multiple_scans
                0x000000000012fbc8                jpeg_consume_input
                0x000000000012fcd8                jpeg_input_complete
                0x000000000012fae8                jpeg_read_header
                0x000000000012fda8                jpeg_finish_decompress
 .text          0x000000000012fec0      0x698 /usr/local/ps2dev/ps2sdk/ports/lib/libjpeg.a(jdapistd.o)
                0x0000000000130170                jpeg_read_scanlines
                0x000000000012fec0                jpeg_start_decompress
                0x0000000000130288                jpeg_read_raw_data
                0x0000000000130460                jpeg_finish_output
                0x00000000001303c8                jpeg_start_output
 .text          0x0000000000130558      0x250 /usr/local/ps2dev/ps2sdk/ports/lib/libjpeg.a(jdatasrc.o)
                0x00000000001306d8                jpeg_stdio_src
 .text          0x00000000001307a8      0xb98 /usr/local/ps2dev/ps2sdk/ports/lib/libjpeg.a(jdmaster.o)
                0x00000000001312e0                jinit_master_decompress
                0x0000000000130888                jpeg_calc_output_dimensions
                0x0000000000131230                jpeg_new_colormap
 .text          0x0000000000131340      0x900 /usr/local/ps2dev/ps2sdk/ports/lib/libjpeg.a(jdinput.o)
                0x0000000000131bc8                jinit_input_controller
 .text          0x0000000000131c40     0x27f8 /usr/local/ps2dev/ps2sdk/ports/lib/libjpeg.a(jdmarker.o)
                0x00000000001343c8                jpeg_set_marker_processor
                0x0000000000134048                jpeg_resync_to_restart
                0x0000000000134200                jinit_marker_reader
                0x00000000001342b8                jpeg_save_markers
 .text          0x0000000000134438      0xec8 /usr/local/ps2dev/ps2sdk/ports/lib/libjpeg.a(jdhuff.o)
                0x00000000001345e0                jpeg_make_d_derived_tbl
                0x0000000000134b48                jpeg_huff_decode
                0x0000000000134998                jpeg_fill_bit_buffer
                0x0000000000135288                jinit_huff_decoder
 .text          0x0000000000135300     0x10c8 /usr/local/ps2dev/ps2sdk/ports/lib/libjpeg.a(jdphuff.o)
                0x00000000001362e8                jinit_phuff_decoder
 .text          0x00000000001363c8      0x9a0 /usr/local/ps2dev/ps2sdk/ports/lib/libjpeg.a(jdmainct.o)
                0x0000000000136c08                jinit_d_main_controller
 .text          0x0000000000136d68     0x1360 /usr/local/ps2dev/ps2sdk/ports/lib/libjpeg.a(jdcoefct.o)
                0x0000000000137f20                jinit_d_coef_controller
 .text          0x00000000001380c8      0x508 /usr/local/ps2dev/ps2sdk/ports/lib/libjpeg.a(jdpostct.o)
                0x00000000001384d8                jinit_d_post_controller
 .text          0x00000000001385d0      0x448 /usr/local/ps2dev/ps2sdk/ports/lib/libjpeg.a(jddctmgr.o)
                0x0000000000138950                jinit_inverse_dct
 .text          0x0000000000138a18      0x5d0 /usr/local/ps2dev/ps2sdk/ports/lib/libjpeg.a(jidctfst.o)
                0x0000000000138a18                jpeg_idct_ifast
 .text          0x0000000000138fe8      0x5c8 /usr/local/ps2dev/ps2sdk/ports/lib/libjpeg.a(jidctflt.o)
                0x0000000000138fe8                jpeg_idct_float
 .text          0x00000000001395b0      0x8a0 /usr/local/ps2dev/ps2sdk/ports/lib/libjpeg.a(jidctint.o)
                0x00000000001395b0                jpeg_idct_islow
 .text          0x0000000000139e50      0x980 /usr/local/ps2dev/ps2sdk/ports/lib/libjpeg.a(jidctred.o)
                0x000000000013a790                jpeg_idct_1x1
                0x000000000013a410                jpeg_idct_2x2
                0x0000000000139e50                jpeg_idct_4x4
 .text          0x000000000013a7d0      0x940 /usr/local/ps2dev/ps2sdk/ports/lib/libjpeg.a(jdsample.o)
                0x000000000013ae40                jinit_upsampler
 .text          0x000000000013b110      0x768 /usr/local/ps2dev/ps2sdk/ports/lib/libjpeg.a(jdcolor.o)
                0x000000000013b650                jinit_color_deconverter
 .text          0x000000000013b878     0x1140 /usr/local/ps2dev/ps2sdk/ports/lib/libjpeg.a(jquant1.o)
                0x000000000013c8a0                jinit_1pass_quantizer
 .text          0x000000000013c9b8     0x1ae0 /usr/local/ps2dev/ps2sdk/ports/lib/libjpeg.a(jquant2.o)
                0x000000000013e2b0                jinit_2pass_quantizer
 .text          0x000000000013e498      0x820 /usr/local/ps2dev/ps2sdk/ports/lib/libjpeg.a(jdmerge.o)
                0x000000000013ebe8                jinit_merged_upsampler
 .text          0x000000000013ecb8      0x118 /usr/local/ps2dev/ps2sdk/ports/lib/libjpeg.a(jcomapi.o)
                0x000000000013ed28                jpeg_destroy
                0x000000000013eda0                jpeg_alloc_huff_table
                0x000000000013ecb8                jpeg_abort
                0x000000000013ed70                jpeg_alloc_quant_table
 .text          0x000000000013edd0      0x110 /usr/local/ps2dev/ps2sdk/ports/lib/libjpeg.a(jutils.o)
                0x000000000013edf0                jround_up
                0x000000000013edd0                jdiv_round_up
                0x000000000013ee20                jcopy_sample_rows
                0x000000000013eec0                jzero_far
                0x000000000013ee98                jcopy_block_row
 .text          0x000000000013eee0      0x290 /usr/local/ps2dev/ps2sdk/ports/lib/libjpeg.a(jerror.o)
                0x000000000013f100                jpeg_std_error
 .text          0x000000000013f170     0x15d0 /usr/local/ps2dev/ps2sdk/ports/lib/libjpeg.a(jmemmgr.o)
                0x0000000000140578                jinit_memory_mgr
 .text          0x0000000000140740       0xc8 /usr/local/ps2dev/ps2sdk/ports/lib/libjpeg.a(jmemnobs.o)
                0x0000000000140740                jpeg_get_small
                0x00000000001407f8                jpeg_mem_init
                0x00000000001407c8                jpeg_open_backing_store
                0x0000000000140800                jpeg_mem_term
                0x00000000001407c0                jpeg_mem_available
                0x0000000000140780                jpeg_get_large
                0x00000000001407a0                jpeg_free_large
                0x0000000000140760                jpeg_free_small
 .text          0x0000000000140808      0xba8 /usr/local/ps2dev/ps2sdk/ports/lib/libpng.a(png.o)
                0x00000000001412d0                png_get_header_ver
                0x00000000001409e0                png_zfree
                0x0000000000140918                png_zalloc
                0x00000000001412c0                png_get_libpng_ver
                0x0000000000140868                png_sig_cmp
                0x0000000000140808                png_set_sig_bytes
                0x0000000000141148                png_info_destroy
                0x00000000001411a8                png_get_io_ptr
                0x00000000001411d0                png_convert_to_rfc1123
                0x00000000001412f0                png_handle_as_unknown
                0x00000000001413a0                png_access_version_number
                0x0000000000140b88                png_info_init_3
                0x00000000001412b0                png_get_copyright
                0x00000000001412e0                png_get_header_version
                0x0000000000141378                png_reset_zstream
                0x0000000000140a38                png_calculate_crc
                0x00000000001413a8                png_mmx_support
                0x00000000001408f0                png_check_sig
                0x0000000000140a00                png_reset_crc
                0x0000000000140aa8                png_create_info_struct
                0x0000000000140b60                png_info_init
                0x0000000000140af8                png_destroy_info_struct
                0x0000000000140c40                png_free_data
                0x0000000000140be8                png_data_freer
                0x00000000001411c0                png_init_io
 .text          0x00000000001413b0      0xde0 /usr/local/ps2dev/ps2sdk/ports/lib/libpng.a(pngget.o)
                0x0000000000141f60                png_get_sBIT
                0x0000000000141908                png_get_cHRM_fixed
                0x0000000000141788                png_get_bKGD
                0x0000000000141b48                png_get_hIST
                0x00000000001414b0                png_get_interlace_type
                0x00000000001416d8                png_get_x_offset_pixels
                0x0000000000141b18                png_get_sPLT
                0x00000000001413d0                png_get_rowbytes
                0x0000000000141ab0                png_get_iCCP
                0x00000000001420e8                png_get_rgb_to_gray_status
                0x0000000000141490                png_get_filter_type
                0x0000000000141ff0                png_get_tIME
                0x00000000001416a0                png_get_y_offset_microns
                0x0000000000141430                png_get_image_height
                0x0000000000141dc0                png_get_pCAL
                0x0000000000141410                png_get_image_width
                0x0000000000142138                png_get_asm_flagmask
                0x00000000001414f0                png_get_x_pixels_per_meter
                0x0000000000141a70                png_get_sRGB
                0x0000000000141748                png_get_channels
                0x0000000000142160                png_get_user_width_max
                0x00000000001419c0                png_get_gAMA
                0x0000000000141710                png_get_y_offset_pixels
                0x0000000000142118                png_get_compression_buffer_size
                0x00000000001413b0                png_get_valid
                0x00000000001414d0                png_get_compression_type
                0x0000000000141668                png_get_x_offset_microns
                0x00000000001413f0                png_get_rows
                0x0000000000141d60                png_get_oFFs
                0x0000000000141450                png_get_bit_depth
                0x0000000000142178                png_get_user_height_max
                0x0000000000141470                png_get_color_type
                0x0000000000141f18                png_get_PLTE
                0x0000000000141560                png_get_pixels_per_meter
                0x0000000000141b88                png_get_IHDR
                0x0000000000141a28                png_get_gAMA_fixed
                0x0000000000142158                png_get_mmx_rowbytes_threshold
                0x0000000000141768                png_get_signature
                0x0000000000142150                png_get_mmx_bitdepth_threshold
                0x0000000000141f98                png_get_text
                0x0000000000141e68                png_get_sCAL
                0x00000000001417c0                png_get_cHRM
                0x0000000000142028                png_get_tRNS
                0x0000000000141eb0                png_get_pHYs
                0x0000000000142140                png_get_mmx_flagmask
                0x0000000000142130                png_get_asm_flags
                0x0000000000141528                png_get_y_pixels_per_meter
                0x00000000001420b8                png_get_unknown_chunks
                0x00000000001415b0                png_get_pixel_aspect_ratio
                0x0000000000142100                png_get_user_chunk_ptr
 .text          0x0000000000142190      0x940 /usr/local/ps2dev/ps2sdk/ports/lib/libpng.a(pngtrans.o)
                0x0000000000142338                png_set_add_alpha
                0x00000000001425b0                png_do_strip_filler
                0x00000000001422b0                png_set_filler
                0x0000000000142280                png_set_interlace_handling
                0x00000000001424a8                png_do_swap
                0x00000000001421e0                png_set_packing
                0x0000000000142378                png_set_swap_alpha
                0x0000000000142a98                png_set_user_transform_info
                0x0000000000142190                png_set_bgr
                0x00000000001421b0                png_set_swap
                0x0000000000142968                png_do_bgr
                0x0000000000142218                png_set_packswap
                0x00000000001423b8                png_set_invert_mono
                0x0000000000142520                png_do_packswap
                0x00000000001423d8                png_do_invert
                0x0000000000142398                png_set_invert_alpha
                0x0000000000142ab8                png_get_user_transform_ptr
                0x0000000000142248                png_set_shift
 .text          0x0000000000142ad0     0x2148 /usr/local/ps2dev/ps2sdk/ports/lib/libpng.a(pngread.o)
                0x0000000000144608                png_read_destroy
                0x0000000000144958                png_set_read_status_fn
                0x0000000000142ef0                png_read_init
                0x0000000000142ad0                png_create_read_struct
                0x0000000000143028                png_read_init_3
                0x0000000000144968                png_read_png
                0x0000000000143908                png_start_read_image
                0x0000000000142f18                png_read_init_2
                0x0000000000143250                png_read_info
                0x00000000001444f8                png_destroy_read_struct
                0x00000000001438a0                png_read_update_info
                0x0000000000143f60                png_read_image
                0x0000000000143940                png_read_row
                0x0000000000142af8                png_create_read_struct_2
                0x0000000000143e58                png_read_rows
                0x0000000000144008                png_read_end
 .text          0x0000000000144c18      0x108 /usr/local/ps2dev/ps2sdk/ports/lib/libpng.a(pngrio.o)
                0x0000000000144ca8                png_set_read_fn
                0x0000000000144c18                png_read_data
                0x0000000000144c50                png_default_read_data
 .text          0x0000000000144d20     0x7318 /usr/local/ps2dev/ps2sdk/ports/lib/libpng.a(pngrtran.o)
                0x0000000000147f10                png_do_read_filler
                0x0000000000144f38                png_set_dither
                0x0000000000145a50                png_set_gray_1_2_4_to_8
                0x0000000000145cd0                png_set_read_user_transform_fn
                0x0000000000144f18                png_set_strip_alpha
                0x0000000000145a20                png_set_expand_gray_1_2_4_to_8
                0x0000000000144ef8                png_set_strip_16
                0x000000000014b550                png_build_gamma_table
                0x0000000000147830                png_do_unshift
                0x000000000014b370                png_do_dither
                0x0000000000148640                png_do_rgb_to_gray
                0x0000000000145ac8                png_set_rgb_to_gray
                0x0000000000145aa0                png_set_gray_to_rgb
                0x0000000000148398                png_do_gray_to_rgb
                0x0000000000145ba8                png_set_rgb_to_gray_fixed
                0x00000000001470c0                png_do_read_transformations
                0x0000000000144d20                png_set_crc_action
                0x00000000001459e8                png_set_palette_to_rgb
                0x0000000000147ba8                png_do_read_swap_alpha
                0x000000000014a470                png_do_gamma
                0x00000000001459b0                png_set_expand
                0x0000000000146d68                png_read_transform_info
                0x000000000014ad88                png_do_expand
                0x0000000000145cf0                png_init_read_transformations
                0x0000000000145a78                png_set_tRNS_to_alpha
                0x0000000000147db8                png_do_read_invert_alpha
                0x0000000000148fa0                png_build_grayscale_palette
                0x000000000014bef0                png_do_read_intrapixel
                0x0000000000147ae0                png_do_chop
                0x0000000000144e50                png_set_background
                0x0000000000147618                png_do_unpack
                0x000000000014a9e8                png_do_expand_palette
                0x00000000001458b0                png_set_gamma
                0x0000000000149030                png_do_background
 .text          0x000000000014c038      0x3b8 /usr/local/ps2dev/ps2sdk/ports/lib/libpng.a(pngmem.o)
                0x000000000014c0e8                png_destroy_struct
                0x000000000014c3b8                png_set_mem_fn
                0x000000000014c278                png_free_default
                0x000000000014c058                png_create_struct_2
                0x000000000014c350                png_memset_check
                0x000000000014c148                png_malloc
                0x000000000014c038                png_create_struct
                0x000000000014c108                png_destroy_struct_2
                0x000000000014c2e8                png_memcpy_check
                0x000000000014c230                png_free
                0x000000000014c3d8                png_get_mem_ptr
                0x000000000014c2a0                png_malloc_warn
                0x000000000014c1e0                png_malloc_default
 .text          0x000000000014c3f0      0x578 /usr/local/ps2dev/ps2sdk/ports/lib/libpng.a(pngerror.o)
                0x000000000014c3f0                png_error
                0x000000000014c500                png_warning
                0x000000000014c750                png_chunk_warning
                0x000000000014c940                png_set_strip_error_numbers
                0x000000000014c928                png_get_error_ptr
                0x000000000014c710                png_chunk_error
                0x000000000014c908                png_set_error_fn
 .text          0x000000000014c968     0x4570 /usr/local/ps2dev/ps2sdk/ports/lib/libpng.a(pngrutil.o)
                0x000000000014ca50                png_read_chunk_header
                0x000000000014ddf8                png_handle_sRGB
                0x0000000000150748                png_read_finish_row
                0x000000000014d0e0                png_handle_IHDR
                0x000000000014cc18                png_crc_error
                0x000000000014ca38                png_get_uint_16
                0x000000000014fb48                png_check_chunk_name
                0x000000000014c968                png_get_uint_31
                0x00000000001504e0                png_read_filter_row
                0x0000000000150ad8                png_read_start_row
                0x000000000014ebc8                png_handle_pHYs
                0x000000000014c9d8                png_get_uint_32
                0x000000000014d4d8                png_handle_IEND
                0x000000000014ea60                png_handle_hIST
                0x000000000014d560                png_handle_gAMA
                0x000000000014f408                png_handle_tIME
                0x000000000014e650                png_handle_tRNS
                0x000000000014d2c0                png_handle_PLTE
                0x000000000014ece0                png_handle_oFFs
                0x000000000014e860                png_handle_bKGD
                0x000000000014f190                png_handle_sCAL
                0x000000000014e078                png_handle_iCCP
                0x000000000014f710                png_handle_zTXt
                0x000000000014edf8                png_handle_pCAL
                0x000000000014f958                png_handle_unknown
                0x000000000014cad0                png_crc_read
                0x000000000014d750                png_handle_sBIT
                0x000000000014fbf8                png_combine_row
                0x000000000014cb28                png_crc_finish
                0x000000000014e328                png_handle_sPLT
                0x000000000014d8e0                png_handle_cHRM
                0x000000000014ccb8                png_decompress_chunk
                0x000000000014ffa0                png_do_read_interlace
                0x000000000014ca08                png_get_int_32
                0x000000000014f538                png_handle_tEXt
 .text          0x0000000000150ed8     0x1fe8 /usr/local/ps2dev/ps2sdk/ports/lib/libpng.a(pngset.o)
                0x00000000001520a0                png_set_sBIT
                0x0000000000151358                png_set_cHRM_fixed
                0x0000000000151630                png_set_gAMA
                0x0000000000152b80                png_set_unknown_chunk_location
                0x0000000000152bf0                png_permit_mng_features
                0x0000000000152368                png_set_text
                0x0000000000151730                png_set_gAMA_fixed
                0x0000000000150ed8                png_set_bKGD
                0x0000000000151cf0                png_set_oFFs
                0x0000000000151910                png_set_IHDR
                0x0000000000152c08                png_set_keep_unknown_chunks
                0x0000000000152648                png_set_tRNS
                0x0000000000152e90                png_set_asm_flags
                0x0000000000152ea0                png_set_mmx_thresholds
                0x0000000000151d20                png_set_pCAL
                0x00000000001529d0                png_set_unknown_chunks
                0x0000000000151fa8                png_set_PLTE
                0x0000000000152e68                png_set_invalid
                0x00000000001527a8                png_set_sPLT
                0x0000000000150f18                png_set_cHRM
                0x0000000000151f48                png_set_sCAL
                0x00000000001521f8                png_set_iCCP
                0x0000000000152bc0                png_permit_empty_plte
                0x00000000001523b0                png_set_text_2
                0x0000000000152e08                png_set_compression_buffer_size
                0x0000000000152d80                png_set_read_user_chunk_fn
                0x0000000000151810                png_set_hIST
                0x0000000000152ea8                png_set_user_limits
                0x0000000000152108                png_set_sRGB_gAMA_and_cHRM
                0x0000000000151f78                png_set_pHYs
                0x00000000001520e0                png_set_sRGB
                0x0000000000152600                png_set_tIME
                0x0000000000152d98                png_set_rows
 .text          0x0000000000152ec0      0xaf8 /usr/local/ps2dev/ps2sdk/ports/lib/libz.a(crc32.o)
                0x0000000000152ed0                crc32
                0x0000000000153890                crc32_combine
                0x0000000000152ec0                get_crc_table
 .text          0x00000000001539b8     0x2238 /usr/local/ps2dev/ps2sdk/ports/lib/libz.a(inflate.o)
                0x0000000000155a00                inflateCopy
                0x0000000000153d68                inflate
                0x00000000001559c8                inflateSyncPoint
                0x00000000001557b0                inflateGetHeader
                0x0000000000153ba8                inflateInit_
                0x0000000000153a28                inflatePrime
                0x00000000001539b8                inflateReset
                0x0000000000155868                inflateSync
                0x0000000000155688                inflateSetDictionary
                0x0000000000155618                inflateEnd
                0x0000000000153a90                inflateInit2_
 .text          0x0000000000155bf0      0x5a0 /usr/local/ps2dev/ps2sdk/ports/lib/libz.a(inftrees.o)
                0x0000000000155bf0                inflate_table
 .text          0x0000000000156190       0x78 /usr/local/ps2dev/ps2sdk/ports/lib/libz.a(zutil.o)
                0x0000000000156190                zlibVersion
                0x00000000001561a0                zlibCompileFlags
                0x00000000001561e8                zcfree
                0x00000000001561a8                zError
                0x00000000001561c8                zcalloc
 .text          0x0000000000156208      0x430 /usr/local/ps2dev/ps2sdk/ports/lib/libz.a(adler32.o)
                0x0000000000156208                adler32
                0x0000000000156548                adler32_combine
 .text          0x0000000000156638      0x588 /usr/local/ps2dev/ps2sdk/ports/lib/libz.a(inffast.o)
                0x0000000000156638                inflate_fast
 .text          0x0000000000156bc0      0x5a8 /usr/local/ps2dev/ps2sdk/ee/lib/libdebug.a(screenshot.o)
                0x0000000000157158                ps2_screenshot_16to32_line
                0x0000000000156bc0                ps2_screenshot_file
                0x0000000000156e28                ps2_screenshot
                0x0000000000157160                ps2_screenshot_16to32_buffer
 .text          0x0000000000157168      0x200 /usr/local/ps2dev/ee/lib/gcc-lib/ee/3.2.2/../../../../ee/lib/libm.a(s_ceil.o)
                0x0000000000157168                ceil
 .text          0x0000000000157368      0x220 /usr/local/ps2dev/ee/lib/gcc-lib/ee/3.2.2/../../../../ee/lib/libm.a(s_floor.o)
                0x0000000000157368                floor
 .text          0x0000000000157588      0x460 /usr/local/ps2dev/ee/lib/gcc-lib/ee/3.2.2/../../../../ee/lib/libm.a(w_pow.o)
                0x0000000000157588                pow
 .text          0x00000000001579e8      0xef8 /usr/local/ps2dev/ee/lib/gcc-lib/ee/3.2.2/../../../../ee/lib/libm.a(e_pow.o)
                0x00000000001579e8                __ieee754_pow
 .text          0x00000000001588e0      0x340 /usr/local/ps2dev/ee/lib/gcc-lib/ee/3.2.2/../../../../ee/lib/libm.a(e_sqrt.o)
                0x00000000001588e0                __ieee754_sqrt
 .text          0x0000000000158c20       0x38 /usr/local/ps2dev/ee/lib/gcc-lib/ee/3.2.2/../../../../ee/lib/libm.a(s_fabs.o)
                0x0000000000158c20                fabs
 .text          0x0000000000158c58       0x20 /usr/local/ps2dev/ee/lib/gcc-lib/ee/3.2.2/../../../../ee/lib/libm.a(s_finite.o)
                0x0000000000158c58                finite
 .text          0x0000000000158c78       0x38 /usr/local/ps2dev/ee/lib/gcc-lib/ee/3.2.2/../../../../ee/lib/libm.a(s_isnan.o)
                0x0000000000158c78                isnan
 .text          0x0000000000158cb0       0x30 /usr/local/ps2dev/ee/lib/gcc-lib/ee/3.2.2/../../../../ee/lib/libm.a(s_matherr.o)
                0x0000000000158cb0                matherr
 .text          0x0000000000158ce0      0x250 /usr/local/ps2dev/ee/lib/gcc-lib/ee/3.2.2/../../../../ee/lib/libm.a(s_rint.o)
                0x0000000000158ce0                rint
 .text          0x0000000000158f30      0x1a8 /usr/local/ps2dev/ee/lib/gcc-lib/ee/3.2.2/../../../../ee/lib/libm.a(s_scalbn.o)
                0x0000000000158f30                scalbn
 .text          0x00000000001590d8       0x48 /usr/local/ps2dev/ee/lib/gcc-lib/ee/3.2.2/../../../../ee/lib/libm.a(s_copysign.o)
                0x00000000001590d8                copysign
 .text          0x0000000000159120     0x1368 /usr/local/ps2dev/ps2sdk/ee/lib/libmc.a(libmc.o)
                0x0000000000159a38                mcFlush
                0x0000000000159680                mcClose
                0x0000000000159460                mcGetInfo
                0x000000000015a470                mcReset
                0x000000000015a2d0                mcChangeThreadPriority
                0x0000000000159f48                mcFormat
                0x000000000015a008                mcUnformat
                0x00000000001592c0                mcInit
                0x0000000000159738                mcSeek
                0x000000000015a1b0                mcRename
                0x0000000000159e68                mcDelete
                0x000000000015a0c8                mcGetEntSpace
                0x000000000015a380                mcSync
                0x0000000000159800                mcRead
                0x0000000000159b20                mcChdir
                0x00000000001598f8                mcWrite
                0x0000000000159d38                mcSetFileInfo
                0x00000000001595a0                mcOpen
                0x0000000000159af0                mcMkDir
                0x0000000000159c28                mcGetDir
 .text          0x000000000015a488      0x118 /usr/local/ps2dev/ps2sdk/ports/lib/libfreetype.a(ftinit.o)
                0x000000000015a4e8                FT_Init_FreeType
                0x000000000015a568                FT_Done_FreeType
                0x000000000015a488                FT_Add_Default_Modules
 .text          0x000000000015a5a0     0x7dd8 /usr/local/ps2dev/ps2sdk/ports/lib/libfreetype.a(ftbase.o)
                0x000000000015e088                FT_Done_GlyphSlot
                0x000000000015a618                FT_QAlloc
                0x000000000015a668                FT_Realloc
                0x000000000015ba70                FT_DivFix
                0x000000000015da70                ft_validator_init
                0x000000000015abf8                FT_Stream_ReleaseFrame
                0x000000000015bb70                FT_MulTo64
                0x000000000015a9f8                FT_Stream_Close
                0x0000000000161300                ft_module_get_service
                0x000000000015adc8                FT_Stream_GetShort
                0x0000000000161bb0                FT_Raccess_Guess
                0x000000000015bcc0                FT_SqrtFixed
                0x0000000000161648                FT_Get_Sfnt_Name
                0x0000000000161600                FT_Set_Debug_Hook
                0x000000000015a940                FT_List_Finalize
                0x000000000015e1e8                FT_Load_Glyph
                0x000000000015c360                FT_Vector_Polarize
                0x000000000015fa18                FT_Done_Face
                0x0000000000160a18                FT_Lookup_Renderer
                0x000000000015aaf8                FT_Stream_ReadAt
                0x000000000015ea40                FT_New_Memory_Face
                0x0000000000160eb0                FT_Render_Glyph
                0x000000000015d5e0                FT_GlyphLoader_CheckPoints
                0x000000000015d820                FT_GlyphLoader_Prepare
                0x0000000000160058                FT_Get_Kerning
                0x0000000000160408                FT_Get_Char_Index
                0x000000000015ccd8                FT_Outline_Reverse
                0x000000000015cc90                FT_Outline_Translate
                0x000000000015ad58                FT_Stream_ExitFrame
                0x000000000015fbd0                FT_Done_Size
                0x000000000015db50                ft_validator_error
                0x000000000015b850                FT_MulDiv
                0x000000000015d778                FT_GlyphLoader_CheckSubGlyphs
                0x00000000001601d8                FT_Set_Charmap
                0x000000000015ae80                FT_Stream_GetLong
                0x000000000015aad0                FT_Stream_Read
                0x000000000015b690                FT_RoundFix
                0x000000000015a820                FT_List_Add
                0x000000000015aa38                FT_Stream_Seek
                0x000000000015fac0                FT_New_Size
                0x000000000015d3d0                FT_GlyphLoader_Rewind
                0x00000000001607f8                FT_Get_Sfnt_Table
                0x000000000015dfc8                FT_New_GlyphSlot
                0x000000000015d8f0                FT_GlyphLoader_CopyPoints
                0x000000000015b700                FT_FloorFix
                0x000000000015c478                FT_Outline_Decompose
                0x000000000015ff28                FT_Set_Pixel_Sizes
                0x0000000000160238                FT_Get_Charmap_Index
                0x000000000015c140                FT_Atan2
                0x000000000015b728                FT_Sqrt32
                0x0000000000160630                FT_Get_Glyph_Name
                0x0000000000160148                FT_Select_Charmap
                0x000000000015cde0                FT_Outline_Render
                0x000000000015cfc8                FT_Outline_Transform
                0x0000000000161980                FT_Raccess_Get_DataOffsets
                0x0000000000161480                FT_New_Library
                0x0000000000161230                FT_Get_Module
                0x000000000015ae38                FT_Stream_GetOffset
                0x00000000001613d8                FT_Remove_Module
                0x000000000015d428                FT_GlyphLoader_Reset
                0x000000000015aaa0                FT_Stream_Skip
                0x000000000015b980                FT_MulFix
                0x00000000001604e0                FT_Get_Next_Char
                0x000000000015a8a0                FT_List_Up
                0x000000000015d138                FT_Outline_Get_Orientation
                0x000000000015f930                FT_Attach_File
                0x000000000015ced0                FT_Outline_Get_Bitmap
                0x000000000015abb0                FT_Stream_ExtractFrame
                0x000000000015b408                FT_Stream_ReadFields
                0x000000000015c1d0                FT_Vector_Rotate
                0x000000000015d388                FT_GlyphLoader_New
                0x000000000015c400                FT_Vector_From_Polar
                0x000000000015af30                FT_Stream_ReadChar
                0x0000000000160898                FT_Load_Sfnt_Table
                0x000000000015c180                FT_Vector_Unit
                0x000000000015dc78                FT_Stream_Free
                0x000000000015c9e0                FT_Outline_Check
                0x000000000015e4f8                FT_Load_Char
                0x0000000000161778                FT_Raccess_Get_HeaderInfo
                0x0000000000160c98                FT_Get_Renderer
                0x000000000015cf38                FT_Vector_Transform
                0x000000000015bbd8                FT_Div64by32
                0x000000000015ac38                FT_Stream_EnterFrame
                0x000000000015fd48                FT_Set_Char_Size
                0x000000000015e100                FT_Set_Transform
                0x000000000015de28                ft_glyphslot_alloc_bitmap
                0x0000000000161628                FT_Get_Sfnt_Name_Count
                0x000000000015ca68                FT_Outline_Copy
                0x000000000015c090                FT_Cos
                0x000000000015ddf0                ft_glyphslot_set_bitmap
                0x000000000015d550                FT_GlyphLoader_CreateExtra
                0x000000000015cbe0                FT_Outline_Get_CBox
                0x0000000000160fd8                FT_Add_Module
                0x000000000015a870                FT_List_Remove
                0x000000000015c890                FT_Outline_New_Internal
                0x000000000015cbb8                FT_Outline_Done
                0x000000000015a848                FT_List_Insert
                0x0000000000160cb8                FT_Set_Renderer
                0x000000000015a7a8                FT_Free
                0x000000000015aed8                FT_Stream_GetLongLE
                0x0000000000160960                FT_Get_CMap_Language_ID
                0x000000000015c428                FT_Angle_Diff
                0x000000000015d860                FT_GlyphLoader_Add
                0x000000000015dd90                ft_glyphslot_free_bitmap
                0x000000000015f648                FT_Open_Face
                0x000000000015f968                FT_Attach_Stream
                0x000000000015d9f0                ft_service_list_lookup
                0x000000000015db68                FT_Stream_New
                0x0000000000161568                FT_Done_Library
                0x000000000015a8e0                FT_List_Iterate
                0x000000000015c0d8                FT_Sin
                0x000000000015ada0                FT_Stream_GetChar
                0x000000000015a7f0                FT_List_Find
                0x000000000015cb10                FT_Outline_Done_Internal
                0x0000000000161528                FT_Library_Version
                0x0000000000160d90                FT_Render_Glyph_Internal
                0x000000000015da88                ft_validator_run
                0x00000000001602c8                FT_CMap_New
                0x0000000000160450                FT_Get_First_Char
                0x000000000015b0a8                FT_Stream_ReadShortLE
                0x000000000015c2c0                FT_Vector_Length
                0x000000000015ea08                FT_New_Face
                0x000000000015d4a8                FT_GlyphLoader_Done
                0x0000000000160560                FT_Get_Name_Index
                0x000000000015b818                FT_Add64
                0x000000000015a730                FT_QRealloc
                0x000000000015b248                FT_Stream_ReadLong
                0x00000000001612d0                FT_Get_Module_Interface
                0x000000000015ae00                FT_Stream_GetShortLE
                0x000000000015b170                FT_Stream_ReadOffset
                0x0000000000160270                FT_CMap_Done
                0x000000000015a9d8                FT_Stream_OpenMemory
                0x000000000015c100                FT_Tan
                0x000000000015b328                FT_Stream_ReadLongLE
                0x00000000001609e8                FT_Activate_Size
                0x0000000000160740                FT_Get_Postscript_Name
                0x000000000015aac8                FT_Stream_Pos
                0x000000000015b6c8                FT_CeilFix
                0x000000000015afe0                FT_Stream_ReadShort
                0x000000000015a5a0                FT_Alloc
                0x000000000015c9b8                FT_Outline_New
 .text          0x0000000000162378     0x41b0 /usr/local/ps2dev/ps2sdk/ports/lib/libfreetype.a(autohint.o)
 .text          0x0000000000166528     0x44c8 /usr/local/ps2dev/ps2sdk/ports/lib/libfreetype.a(bdf.o)
 .text          0x000000000016a9f0     0x5d90 /usr/local/ps2dev/ps2sdk/ports/lib/libfreetype.a(cff.o)
 .text          0x0000000000170780     0x1d08 /usr/local/ps2dev/ps2sdk/ports/lib/libfreetype.a(type1cid.o)
 .text          0x0000000000172488     0x2070 /usr/local/ps2dev/ps2sdk/ports/lib/libfreetype.a(pcf.o)
 .text          0x00000000001744f8     0x3a80 /usr/local/ps2dev/ps2sdk/ports/lib/libfreetype.a(pfr.o)
 .text          0x0000000000177f78     0x3660 /usr/local/ps2dev/ps2sdk/ports/lib/libfreetype.a(psaux.o)
 .text          0x000000000017b5d8     0x3f70 /usr/local/ps2dev/ps2sdk/ports/lib/libfreetype.a(pshinter.o)
                0x000000000017f2a8                ps_hints_apply
 .text          0x000000000017f548      0x5a0 /usr/local/ps2dev/ps2sdk/ports/lib/libfreetype.a(psnames.o)
 .text          0x000000000017fae8     0x2c08 /usr/local/ps2dev/ps2sdk/ports/lib/libfreetype.a(raster.o)
 .text          0x00000000001826f0     0x69f8 /usr/local/ps2dev/ps2sdk/ports/lib/libfreetype.a(sfnt.o)
 .text          0x00000000001890e8     0x28b0 /usr/local/ps2dev/ps2sdk/ports/lib/libfreetype.a(smooth.o)
                0x000000000018b188                gray_raster_render
 .text          0x000000000018b998     0x4a18 /usr/local/ps2dev/ps2sdk/ports/lib/libfreetype.a(truetype.o)
 .text          0x00000000001903b0     0x4798 /usr/local/ps2dev/ps2sdk/ports/lib/libfreetype.a(type1.o)
 .text          0x0000000000194b48     0x20e8 /usr/local/ps2dev/ps2sdk/ports/lib/libfreetype.a(type42.o)
 .text          0x0000000000196c30      0xae0 /usr/local/ps2dev/ps2sdk/ports/lib/libfreetype.a(winfnt.o)
 .text          0x0000000000197710      0x228 /usr/local/ps2dev/ps2sdk/ports/lib/libfreetype.a(ftsystem.o)
                0x0000000000197918                FT_Done_Memory
                0x00000000001978d0                FT_New_Memory
                0x0000000000197820                FT_Stream_Open
 .text          0x0000000000197938      0xc08 /usr/local/ps2dev/ps2sdk/ports/lib/libfreetype.a(ftglyph.o)
                0x0000000000198060                FT_Get_Glyph
                0x0000000000198308                FT_Glyph_To_Bitmap
                0x0000000000197a20                FT_Matrix_Invert
                0x0000000000197938                FT_Matrix_Multiply
                0x00000000001984e8                FT_Done_Glyph
                0x0000000000198208                FT_Glyph_Get_CBox
                0x0000000000198180                FT_Glyph_Transform
                0x0000000000197f88                FT_Glyph_Copy
 .text          0x0000000000198540     0x3078 /usr/local/ps2dev/ps2sdk/ports/lib/libfreetype.a(ftgzip.o)
                0x000000000019b4e0                FT_Stream_OpenGzip
 .text          0x000000000019b5b8      0xf08 /usr/local/ps2dev/ps2sdk/ports/lib/libfreetype.a(ftlzw.o)
                0x000000000019bc58                FT_Stream_OpenLZW
 .text          0x000000000019c4c0      0x220 /usr/local/ps2dev/ps2sdk/ee/lib/libvux.a(vuhw.o)
                0x000000000019c628                Vu0InverseMatrix
                0x000000000019c510                Vu0TransMatrixXYZ
                0x000000000019c500                Vu0TransMatrix
                0x000000000019c630                Vu0ApplyMatrix
                0x000000000019c688                Vu0CopyMatrix
                0x000000000019c548                Vu0ScaleMatrix
                0x000000000019c660                Vu0ApplyRotMatrix
                0x000000000019c4c0                Vu0IdMatrix
                0x000000000019c4e0                Vu0ResetMatrix
                0x000000000019c5b0                Vu0MulMatrix
                0x000000000019c6b0                Vu0DotProduct
                0x000000000019c578                Vu0ScaleMatrixXYZ
 .text          0x000000000019c6e0      0x1b8 /usr/local/ps2dev/ps2sdk/ee/lib/libcdvd.a(cdInit.o)
                0x000000000019c6e0                cdInit
 .text          0x000000000019c898      0x1c8 /usr/local/ps2dev/ps2sdk/ee/lib/libcdvd.a(cdDiskReady.o)
                0x000000000019c898                cdDiskReady
 .text          0x000000000019ca60       0x98 /usr/local/ps2dev/ps2sdk/ee/lib/libcdvd.a(cdSemaInit.o)
                0x000000000019ca60                cdSemaInit
 .text          0x000000000019caf8       0x70 /usr/local/ps2dev/ps2sdk/ee/lib/libcdvd.a(cdSemaExit.o)
                0x000000000019caf8                cdSemaExit
 .text          0x000000000019cb68       0xc8 /usr/local/ps2dev/ps2sdk/ee/lib/libcdvd.a(cdStandby.o)
                0x000000000019cb68                cdStandby
 .text          0x000000000019cc30       0xc8 /usr/local/ps2dev/ps2sdk/ee/lib/libcdvd.a(cdStop.o)
                0x000000000019cc30                cdStop
 .text          0x000000000019ccf8       0x98 /usr/local/ps2dev/ps2sdk/ee/lib/libcdvd.a(cdNCmdDiskReady.o)
                0x000000000019ccf8                cdNCmdDiskReady
 .text          0x000000000019cd90       0xb0 /usr/local/ps2dev/ps2sdk/ee/lib/libcdvd.a(cdSync.o)
                0x000000000019cd90                cdSync
 .text          0x000000000019ce40      0x168 /usr/local/ps2dev/ps2sdk/ee/lib/libcdvd.a(cdCheckNCmd.o)
                0x000000000019ce40                cdCheckNCmd
 .text          0x000000000019cfa8      0x100 /usr/local/ps2dev/ps2sdk/ee/lib/libcdvd.a(cdReadClock.o)
                0x000000000019cfa8                cdReadClock
 .text          0x000000000019d0a8       0x98 /usr/local/ps2dev/ps2sdk/ee/lib/libcdvd.a(cdGetDiscType.o)
                0x000000000019d0a8                cdGetDiscType
 .text          0x000000000019d140       0xc0 /usr/local/ps2dev/ps2sdk/ee/lib/libcdvd.a(cdStatus.o)
                0x000000000019d140                cdStatus
 .text          0x000000000019d200      0x168 /usr/local/ps2dev/ps2sdk/ee/lib/libcdvd.a(cdCheckSCmd.o)
                0x000000000019d200                cdCheckSCmd
 .text          0x000000000019d368       0x68 /usr/local/ps2dev/ps2sdk/ee/lib/libcdvd.a(cdSyncS.o)
                0x000000000019d368                cdSyncS
 .text          0x000000000019d3d0       0x70 /usr/local/ps2dev/ps2sdk/ee/lib/libcdvd.a(cdCallback.o)
                0x000000000019d3d0                cdCallback
 .text          0x000000000019d440       0xac /usr/local/ps2dev/ps2sdk/ee/lib/libc.a(memcpy.o)
                0x000000000019d440                memcpy
 .text          0x000000000019d4ec       0xac /usr/local/ps2dev/ps2sdk/ee/lib/libc.a(memset.o)
                0x000000000019d4ec                memset
 .text          0x000000000019d598      0x12c /usr/local/ps2dev/ps2sdk/ee/lib/libc.a(strcat.o)
                0x000000000019d598                strcat
 *fill*         0x000000000019d6c4 0x8e44f7000000004 00
 .text          0x000000000019d6c8      0x1b8 /usr/local/ps2dev/ps2sdk/ee/lib/libc.a(strncmp.o)
                0x000000000019d6c8                strncmp
 .text          0x000000000019d880       0x94 /usr/local/ps2dev/ps2sdk/ee/lib/libc.a(memcmp.o)
                0x000000000019d880                memcmp
 .text          0x000000000019d914       0xfc /usr/local/ps2dev/ps2sdk/ee/lib/libc.a(memmove.o)
                0x000000000019d914                memmove
 .text          0x000000000019da10      0x110 /usr/local/ps2dev/ps2sdk/ee/lib/libc.a(strcpy.o)
                0x000000000019da10                strcpy
 .text          0x000000000019db20      0x1b8 /usr/local/ps2dev/ps2sdk/ee/lib/libc.a(strncpy.o)
                0x000000000019db20                strncpy
 .text          0x000000000019dcd8       0x30 /usr/local/ps2dev/ps2sdk/ee/lib/libc.a(terminate.o)
                0x000000000019dcd8                abort
                0x000000000019dcf8                exit
 .text          0x000000000019dd08      0x138 /usr/local/ps2dev/ps2sdk/ee/lib/libc.a(strlen.o)
                0x000000000019dd08                strlen
 .text          0x000000000019de40      0x190 /usr/local/ps2dev/ps2sdk/ee/lib/libc.a(strchr.o)
                0x000000000019de40                strchr
 .text          0x000000000019dfd0      0x144 /usr/local/ps2dev/ps2sdk/ee/lib/libc.a(strcmp.o)
                0x000000000019dfd0                strcmp
 .text          0x000000000019e114       0xd0 /usr/local/ps2dev/ps2sdk/ee/lib/libc.a(setjmp.o)
                0x000000000019e178                longjmp
                0x000000000019e114                setjmp
 *fill*         0x000000000019e1e4 0x8e44f7000000004 00
 .text          0x000000000019e1e8      0x9b8 /usr/local/ps2dev/ps2sdk/ee/lib/libc.a(qsort.o)
                0x000000000019e1e8                qsort
 .text          0x000000000019eba0       0x60 /usr/local/ps2dev/ps2sdk/ee/lib/libc.a(snprintf.o)
                0x000000000019eba0                snprintf
 .text          0x000000000019ec00       0x60 /usr/local/ps2dev/ps2sdk/ee/lib/libc.a(sprintf.o)
                0x000000000019ec00                sprintf
 .text          0x000000000019ec60       0x60 /usr/local/ps2dev/ps2sdk/ee/lib/libc.a(fprintf.o)
                0x000000000019ec60                fprintf
 .text          0x000000000019ecc0       0x48 /usr/local/ps2dev/ps2sdk/ee/lib/libc.a(printf.o)
                0x000000000019ecc0                printf
 .text          0x000000000019ed08       0x58 /usr/local/ps2dev/ps2sdk/ee/lib/libc.a(vprintf.o)
                0x000000000019ed08                vprintf
 .text          0x000000000019ed60       0x68 /usr/local/ps2dev/ps2sdk/ee/lib/libc.a(sscanf.o)
                0x000000000019ed60                sscanf
 .text          0x000000000019edc8       0x88 /usr/local/ps2dev/ps2sdk/ee/lib/libc.a(_xscanf_internals.o)
                0x000000000019ee08                _s_xgetc
                0x000000000019ede8                _f_xungetc
                0x000000000019ee28                _s_xungetc
                0x000000000019edc8                _f_xgetc
 .text          0x000000000019ee50      0x1f0 /usr/local/ps2dev/ps2sdk/ee/lib/libc.a(malloc.o)
                0x000000000019ee90                malloc
                0x000000000019ee50                _heap_mem_fit
 .text          0x000000000019f040      0x148 /usr/local/ps2dev/ps2sdk/ee/lib/libc.a(realloc.o)
                0x000000000019f040                realloc
 .text          0x000000000019f188       0x50 /usr/local/ps2dev/ps2sdk/ee/lib/libc.a(calloc.o)
                0x000000000019f188                calloc
 .text          0x000000000019f1d8      0x148 /usr/local/ps2dev/ps2sdk/ee/lib/libc.a(memalign.o)
                0x000000000019f1d8                memalign
 .text          0x000000000019f320       0xf8 /usr/local/ps2dev/ps2sdk/ee/lib/libc.a(free.o)
                0x000000000019f320                free
 .text          0x000000000019f418       0xc0 /usr/local/ps2dev/ps2sdk/ee/lib/libc.a(__alloc_internals.o)
                0x000000000019f448                _ps2sdk_alloc_deinit
                0x000000000019f418                _ps2sdk_alloc_init
                0x000000000019f478                _ps2sdk_alloc_lock
                0x000000000019f4a8                _ps2sdk_alloc_unlock
 .text          0x000000000019f4d8       0x90 /usr/local/ps2dev/ps2sdk/ee/lib/libc.a(strcasecmp.o)
                0x000000000019f4d8                strcasecmp
 .text          0x000000000019f568       0x58 /usr/local/ps2dev/ps2sdk/ee/lib/libc.a(strrchr.o)
                0x000000000019f568                strrchr
 .text          0x000000000019f5c0       0x88 /usr/local/ps2dev/ps2sdk/ee/lib/libc.a(strstr.o)
                0x000000000019f5c0                strstr
 .text          0x000000000019f648       0x30 /usr/local/ps2dev/ps2sdk/ee/lib/libc.a(tolower.o)
                0x000000000019f648                tolower
 .text          0x000000000019f678       0x18 /usr/local/ps2dev/ps2sdk/ee/lib/libc.a(isupper.o)
                0x000000000019f678                isupper
 .text          0x000000000019f690       0x18 /usr/local/ps2dev/ps2sdk/ee/lib/libc.a(isdigit.o)
                0x000000000019f690                isdigit
 .text          0x000000000019f6a8       0x50 /usr/local/ps2dev/ps2sdk/ee/lib/libc.a(isalnum.o)
                0x000000000019f6a8                isalnum
 .text          0x000000000019f6f8       0x20 /usr/local/ps2dev/ps2sdk/ee/lib/libc.a(isprint.o)
                0x000000000019f6f8                isprint
 .text          0x000000000019f718       0x48 /usr/local/ps2dev/ps2sdk/ee/lib/libc.a(isxdigit.o)
                0x000000000019f718                isxdigit
 .text          0x000000000019f760       0xa8 /usr/local/ps2dev/ps2sdk/ee/lib/libc.a(fclose.o)
                0x000000000019f760                fclose
 .text          0x000000000019f808       0x78 /usr/local/ps2dev/ps2sdk/ee/lib/libc.a(fgetc.o)
                0x000000000019f808                fgetc
 .text          0x000000000019f880      0x738 /usr/local/ps2dev/ps2sdk/ee/lib/libc.a(fopen.o)
                0x000000000019fb48                fopen
                0x000000000019f880                __ps2_normalize_path
 .text          0x000000000019ffb8       0x40 /usr/local/ps2dev/ps2sdk/ee/lib/libc.a(fputc.o)
                0x000000000019ffb8                fputc
 .text          0x000000000019fff8       0xb0 /usr/local/ps2dev/ps2sdk/ee/lib/libc.a(fread.o)
                0x000000000019fff8                fread
 .text          0x00000000001a00a8       0x78 /usr/local/ps2dev/ps2sdk/ee/lib/libc.a(fseek.o)
                0x00000000001a00a8                fseek
 .text          0x00000000001a0120       0xb8 /usr/local/ps2dev/ps2sdk/ee/lib/libc.a(ftell.o)
                0x00000000001a0120                ftell
 .text          0x00000000001a01d8      0x160 /usr/local/ps2dev/ps2sdk/ee/lib/libc.a(fwrite.o)
                0x00000000001a01d8                fwrite
 .text          0x00000000001a0338       0xa0 /usr/local/ps2dev/ps2sdk/ee/lib/libc.a(getfdtype.o)
                0x00000000001a0338                __stdio_get_fd_type
 .text          0x00000000001a03d8       0x60 /usr/local/ps2dev/ps2sdk/ee/lib/libc.a(putc.o)
                0x00000000001a03d8                putc
 .text          0x00000000001a0438       0xb0 /usr/local/ps2dev/ps2sdk/ee/lib/libc.a(puts.o)
                0x00000000001a0438                puts
 .text          0x00000000001a04e8       0x30 /usr/local/ps2dev/ps2sdk/ee/lib/libc.a(ungetc.o)
                0x00000000001a04e8                ungetc
 .text          0x00000000001a0518       0xc0 /usr/local/ps2dev/ps2sdk/ee/lib/libc.a(__stdio_internals.o)
                0x00000000001a0558                fioRename
                0x00000000001a0560                _ps2sdk_stdio_init
                0x00000000001a0518                fioRemove_Helper
                0x00000000001a05b0                _ps2sdk_stdio_deinit
 .text          0x00000000001a05d8       0x90 /usr/local/ps2dev/ps2sdk/ee/lib/libc.a(getenv.o)
                0x00000000001a05d8                getenv
 .text          0x00000000001a0668       0x68 /usr/local/ps2dev/ps2sdk/ee/lib/libc.a(rand.o)
                0x00000000001a0668                rand
 .text          0x00000000001a06d0      0x270 /usr/local/ps2dev/ps2sdk/ee/lib/libc.a(strtod.o)
                0x00000000001a06d0                strtod
 .text          0x00000000001a0940      0x238 /usr/local/ps2dev/ps2sdk/ee/lib/libc.a(strtol.o)
                0x00000000001a0940                strtol
 .text          0x00000000001a0b78       0x40 /usr/local/ps2dev/ps2sdk/ee/lib/libc.a(__assert_fail.o)
                0x00000000001a0b78                __assert_fail
 .text          0x00000000001a0bb8       0x68 /usr/local/ps2dev/ps2sdk/ee/lib/libc.a(__stdlib_internals.o)
                0x00000000001a0bc0                _ps2sdk_stdlib_deinit
                0x00000000001a0bb8                _ps2sdk_stdlib_init
 .text          0x00000000001a0c20       0xe0 /usr/local/ps2dev/ps2sdk/ee/lib/libc.a(sleep.o)
                0x00000000001a0c78                sleep
 .text          0x00000000001a0d00      0x158 /usr/local/ps2dev/ps2sdk/ee/lib/libc.a(clock.o)
                0x00000000001a0d30                _ps2sdk_time_init
                0x00000000001a0db8                _ps2sdk_time_deinit
                0x00000000001a0e40                time
                0x00000000001a0e18                clock
 .text          0x00000000001a0e58       0x70 /usr/local/ps2dev/ps2sdk/ee/lib/libc.a(init_libc.o)
                0x00000000001a0e90                _ps2sdk_libc_deinit
                0x00000000001a0e58                _ps2sdk_libc_init
 .text          0x00000000001a0ec8       0xb0 /usr/local/ps2dev/ps2sdk/ee/lib/libc.a(init_args.o)
                0x00000000001a0ec8                _ps2sdk_args_parse
 .text          0x00000000001a0f78       0x68 /usr/local/ps2dev/ps2sdk/ee/lib/libc.a(sbrk.o)
                0x00000000001a0f78                ps2_sbrk
 .text          0x00000000001a0fe0     0x1030 /usr/local/ps2dev/ps2sdk/ee/lib/libc.a(vxprintf.o)
                0x00000000001a1070                vxprintf
 .text          0x00000000001a2010       0x88 /usr/local/ps2dev/ps2sdk/ee/lib/libc.a(__sout.o)
                0x00000000001a2010                __sout
 .text          0x00000000001a2098       0x40 /usr/local/ps2dev/ps2sdk/ee/lib/libc.a(vsnprintf.o)
                0x00000000001a2098                vsnprintf
 .text          0x00000000001a20d8       0x28 /usr/local/ps2dev/ps2sdk/ee/lib/libc.a(__fout.o)
                0x00000000001a20d8                __fout
 .text          0x00000000001a2100       0x30 /usr/local/ps2dev/ps2sdk/ee/lib/libc.a(putchar.o)
                0x00000000001a2100                putchar
 .text          0x00000000001a2130      0xcc8 /usr/local/ps2dev/ps2sdk/ee/lib/libc.a(vxscanf.o)
                0x00000000001a2130                vxscanf
 .text          0x00000000001a2df8       0x50 /usr/local/ps2dev/ps2sdk/ee/lib/libc.a(isalpha.o)
                0x00000000001a2df8                isalpha
 .text          0x00000000001a2e48       0x20 /usr/local/ps2dev/ps2sdk/ee/lib/libc.a(iscntrl.o)
                0x00000000001a2e48                iscntrl
 .text          0x00000000001a2e68       0x20 /usr/local/ps2dev/ps2sdk/ee/lib/libc.a(isspace.o)
                0x00000000001a2e68                isspace
 .text          0x00000000001a2e88       0x78 /usr/local/ps2dev/ps2sdk/ee/lib/libc.a(fcloseall.o)
                0x00000000001a2e88                _fcloseall
 .text          0x00000000001a2f00       0x28 /usr/local/ps2dev/ps2sdk/ee/lib/libc.a(chdir.o)
                0x00000000001a2f00                chdir
 .text          0x00000000001a2f28       0x18 /usr/local/ps2dev/ps2sdk/ee/lib/libc.a(islower.o)
                0x00000000001a2f28                islower
 .text          0x00000000001a2f40       0x10 /usr/local/ps2dev/ps2sdk/ee/lib/libkernel.a(SetGsCrt.o)
                0x00000000001a2f40                SetGsCrt
 .text          0x00000000001a2f50       0x10 /usr/local/ps2dev/ps2sdk/ee/lib/libkernel.a(Exit.o)
                0x00000000001a2f50                Exit
 .text          0x00000000001a2f60       0x10 /usr/local/ps2dev/ps2sdk/ee/lib/libkernel.a(ExecPS2.o)
                0x00000000001a2f60                ExecPS2
 .text          0x00000000001a2f70       0x10 /usr/local/ps2dev/ps2sdk/ee/lib/libkernel.a(SetVCommonHandler.o)
                0x00000000001a2f70                SetVCommonHandler
 .text          0x00000000001a2f80       0x10 /usr/local/ps2dev/ps2sdk/ee/lib/libkernel.a(AddIntcHandler.o)
                0x00000000001a2f80                AddIntcHandler
 .text          0x00000000001a2f90       0x10 /usr/local/ps2dev/ps2sdk/ee/lib/libkernel.a(RemoveIntcHandler.o)
                0x00000000001a2f90                RemoveIntcHandler
 .text          0x00000000001a2fa0       0x10 /usr/local/ps2dev/ps2sdk/ee/lib/libkernel.a(SetAlarm.o)
                0x00000000001a2fa0                SetAlarm
 .text          0x00000000001a2fb0       0x10 /usr/local/ps2dev/ps2sdk/ee/lib/libkernel.a(ReleaseAlarm.o)
                0x00000000001a2fb0                ReleaseAlarm
 .text          0x00000000001a2fc0       0x10 /usr/local/ps2dev/ps2sdk/ee/lib/libkernel.a(iSetAlarm.o)
                0x00000000001a2fc0                iSetAlarm
 .text          0x00000000001a2fd0       0x10 /usr/local/ps2dev/ps2sdk/ee/lib/libkernel.a(CreateThread.o)
                0x00000000001a2fd0                CreateThread
 .text          0x00000000001a2fe0       0x10 /usr/local/ps2dev/ps2sdk/ee/lib/libkernel.a(DeleteThread.o)
                0x00000000001a2fe0                DeleteThread
 .text          0x00000000001a2ff0       0x10 /usr/local/ps2dev/ps2sdk/ee/lib/libkernel.a(StartThread.o)
                0x00000000001a2ff0                StartThread
 .text          0x00000000001a3000       0x10 /usr/local/ps2dev/ps2sdk/ee/lib/libkernel.a(ExitDeleteThread.o)
                0x00000000001a3000                ExitDeleteThread
 .text          0x00000000001a3010       0x10 /usr/local/ps2dev/ps2sdk/ee/lib/libkernel.a(TerminateThread.o)
                0x00000000001a3010                TerminateThread
 .text          0x00000000001a3020       0x10 /usr/local/ps2dev/ps2sdk/ee/lib/libkernel.a(ChangeThreadPriority.o)
                0x00000000001a3020                ChangeThreadPriority
 .text          0x00000000001a3030       0x10 /usr/local/ps2dev/ps2sdk/ee/lib/libkernel.a(iRotateThreadReadyQueue.o)
                0x00000000001a3030                iRotateThreadReadyQueue
 .text          0x00000000001a3040       0x10 /usr/local/ps2dev/ps2sdk/ee/lib/libkernel.a(GetThreadId.o)
                0x00000000001a3040                GetThreadId
 .text          0x00000000001a3050       0x10 /usr/local/ps2dev/ps2sdk/ee/lib/libkernel.a(ReferThreadStatus.o)
                0x00000000001a3050                ReferThreadStatus
 .text          0x00000000001a3060       0x10 /usr/local/ps2dev/ps2sdk/ee/lib/libkernel.a(SleepThread.o)
                0x00000000001a3060                SleepThread
 .text          0x00000000001a3070       0x10 /usr/local/ps2dev/ps2sdk/ee/lib/libkernel.a(WakeupThread.o)
                0x00000000001a3070                WakeupThread
 .text          0x00000000001a3080       0x10 /usr/local/ps2dev/ps2sdk/ee/lib/libkernel.a(iWakeupThread.o)
                0x00000000001a3080                iWakeupThread
 .text          0x00000000001a3090       0x10 /usr/local/ps2dev/ps2sdk/ee/lib/libkernel.a(EndOfHeap.o)
                0x00000000001a3090                EndOfHeap
 .text          0x00000000001a30a0       0x10 /usr/local/ps2dev/ps2sdk/ee/lib/libkernel.a(CreateSema.o)
                0x00000000001a30a0                CreateSema
 .text          0x00000000001a30b0       0x10 /usr/local/ps2dev/ps2sdk/ee/lib/libkernel.a(DeleteSema.o)
                0x00000000001a30b0                DeleteSema
 .text          0x00000000001a30c0       0x10 /usr/local/ps2dev/ps2sdk/ee/lib/libkernel.a(iSignalSema.o)
                0x00000000001a30c0                iSignalSema
 .text          0x00000000001a30d0       0x10 /usr/local/ps2dev/ps2sdk/ee/lib/libkernel.a(SignalSema.o)
                0x00000000001a30d0                SignalSema
 .text          0x00000000001a30e0       0x10 /usr/local/ps2dev/ps2sdk/ee/lib/libkernel.a(WaitSema.o)
                0x00000000001a30e0                WaitSema
 .text          0x00000000001a30f0       0x10 /usr/local/ps2dev/ps2sdk/ee/lib/libkernel.a(PollSema.o)
                0x00000000001a30f0                PollSema
 .text          0x00000000001a3100       0x10 /usr/local/ps2dev/ps2sdk/ee/lib/libkernel.a(FlushCache.o)
                0x00000000001a3100                FlushCache
 .text          0x00000000001a3110       0x10 /usr/local/ps2dev/ps2sdk/ee/lib/libkernel.a(GsGetIMR.o)
                0x00000000001a3110                GsGetIMR
 .text          0x00000000001a3120       0x10 /usr/local/ps2dev/ps2sdk/ee/lib/libkernel.a(GsPutIMR.o)
                0x00000000001a3120                GsPutIMR
 .text          0x00000000001a3130       0xb0 /usr/local/ps2dev/ps2sdk/ee/lib/libkernel.a(SifWriteBackDCache.o)
                0x00000000001a3130                SifWriteBackDCache
 .text          0x00000000001a31e0       0x10 /usr/local/ps2dev/ps2sdk/ee/lib/libkernel.a(__errno.o)
                0x00000000001a31e0                __errno
 .text          0x00000000001a31f0       0x38 /usr/local/ps2dev/ps2sdk/ee/lib/libkernel.a(sif_cmd_addhandler.o)
                0x00000000001a31f0                SifAddCmdHandler
 .text          0x00000000001a3228      0x128 /usr/local/ps2dev/ps2sdk/ee/lib/libkernel.a(SifBindRpc.o)
                0x00000000001a3228                SifBindRpc
 .text          0x00000000001a3350      0x1b8 /usr/local/ps2dev/ps2sdk/ee/lib/libkernel.a(SifCallRpc.o)
                0x00000000001a3350                SifCallRpc
 .text          0x00000000001a3508      0x448 /usr/local/ps2dev/ps2sdk/ee/lib/libkernel.a(SifRpcMain.o)
                0x00000000001a37c0                SifInitRpc
                0x00000000001a3928                SifExitRpc
 .text          0x00000000001a3950       0xc0 /usr/local/ps2dev/ps2sdk/ee/lib/libkernel.a(_rpc_get_packet.o)
                0x00000000001a3950                _rpc_get_packet
 .text          0x00000000001a3a10       0x30 /usr/local/ps2dev/ps2sdk/ee/lib/libkernel.a(_rpc_get_fpacket.o)
                0x00000000001a3a10                _rpc_get_fpacket
 .text          0x00000000001a3a40       0x30 /usr/local/ps2dev/ps2sdk/ee/lib/libkernel.a(SifCheckStatRpc.o)
                0x00000000001a3a40                SifCheckStatRpc
 .text          0x00000000001a3a70       0x30 /usr/local/ps2dev/ps2sdk/ee/lib/libkernel.a(fio_exit.o)
                0x00000000001a3a70                fioExit
 .text          0x00000000001a3aa0       0xc8 /usr/local/ps2dev/ps2sdk/ee/lib/libkernel.a(fio_open.o)
                0x00000000001a3aa0                fioOpen
 .text          0x00000000001a3b68       0x80 /usr/local/ps2dev/ps2sdk/ee/lib/libkernel.a(fio_close.o)
                0x00000000001a3b68                fioClose
 .text          0x00000000001a3be8      0x118 /usr/local/ps2dev/ps2sdk/ee/lib/libkernel.a(fio_read.o)
                0x00000000001a3be8                fioRead
 .text          0x00000000001a3d00      0x110 /usr/local/ps2dev/ps2sdk/ee/lib/libkernel.a(fio_write.o)
                0x00000000001a3d00                fioWrite
 .text          0x00000000001a3e10       0xa0 /usr/local/ps2dev/ps2sdk/ee/lib/libkernel.a(fio_lseek.o)
                0x00000000001a3e10                fioLseek
 .text          0x00000000001a3eb0       0x90 /usr/local/ps2dev/ps2sdk/ee/lib/libkernel.a(fio_mkdir.o)
                0x00000000001a3eb0                fioMkdir
 .text          0x00000000001a3f40       0x88 /usr/local/ps2dev/ps2sdk/ee/lib/libkernel.a(_fio_read_intr.o)
                0x00000000001a3f40                _fio_read_intr
 .text          0x00000000001a3fc8      0x150 /usr/local/ps2dev/ps2sdk/ee/lib/libkernel.a(fio_ioctl.o)
                0x00000000001a3fc8                fioIoctl
 .text          0x00000000001a4118       0x90 /usr/local/ps2dev/ps2sdk/ee/lib/libkernel.a(fio_dopen.o)
                0x00000000001a4118                fioDopen
 .text          0x00000000001a41a8       0x80 /usr/local/ps2dev/ps2sdk/ee/lib/libkernel.a(fio_dclose.o)
                0x00000000001a41a8                fioDclose
 .text          0x00000000001a4228       0xb8 /usr/local/ps2dev/ps2sdk/ee/lib/libkernel.a(fio_dread.o)
                0x00000000001a4228                fioDread
 .text          0x00000000001a42e0       0xc8 /usr/local/ps2dev/ps2sdk/ee/lib/libkernel.a(fio_getstat.o)
                0x00000000001a42e0                fioGetstat
 .text          0x00000000001a43a8       0x90 /usr/local/ps2dev/ps2sdk/ee/lib/libkernel.a(fio_remove.o)
                0x00000000001a43a8                fioRemove
 .text          0x00000000001a4438       0x90 /usr/local/ps2dev/ps2sdk/ee/lib/libkernel.a(fio_rmdir.o)
                0x00000000001a4438                fioRmdir
 .text          0x00000000001a44c8      0x100 /usr/local/ps2dev/ps2sdk/ee/lib/libkernel.a(SifLoadFileInit.o)
                0x00000000001a44c8                SifLoadFileInit
 .text          0x00000000001a45c8       0x30 /usr/local/ps2dev/ps2sdk/ee/lib/libkernel.a(SifLoadFileExit.o)
                0x00000000001a45c8                SifLoadFileExit
 .text          0x00000000001a45f8       0x28 /usr/local/ps2dev/ps2sdk/ee/lib/libkernel.a(SifLoadModule.o)
                0x00000000001a45f8                SifLoadModule
 .text          0x00000000001a4620       0xe0 /usr/local/ps2dev/ps2sdk/ee/lib/libkernel.a(SifExecModuleBuffer.o)
                0x00000000001a4620                SifExecModuleBuffer
 .text          0x00000000001a4700      0x108 /usr/local/ps2dev/ps2sdk/ee/lib/libkernel.a(SifInitIopHeap.o)
                0x00000000001a4700                SifInitIopHeap
 .text          0x00000000001a4808       0x10 /usr/local/ps2dev/ps2sdk/ee/lib/libkernel.a(SifExitIopHeap.o)
                0x00000000001a4808                SifExitIopHeap
 .text          0x00000000001a4818       0x70 /usr/local/ps2dev/ps2sdk/ee/lib/libkernel.a(SifAllocIopHeap.o)
                0x00000000001a4818                SifAllocIopHeap
 .text          0x00000000001a4888       0x78 /usr/local/ps2dev/ps2sdk/ee/lib/libkernel.a(SifFreeIopHeap.o)
                0x00000000001a4888                SifFreeIopHeap
 .text          0x00000000001a4900      0x138 /usr/local/ps2dev/ps2sdk/ee/lib/libkernel.a(SifIopReset.o)
                0x00000000001a4900                SifIopReset
 .text          0x00000000001a4a38       0x28 /usr/local/ps2dev/ps2sdk/ee/lib/libkernel.a(SifIopSync.o)
                0x00000000001a4a38                SifIopSync
 .text          0x00000000001a4a60       0x60 /usr/local/ps2dev/ps2sdk/ee/lib/libkernel.a(GetRomName.o)
                0x00000000001a4a60                GetRomName
 .text          0x00000000001a4ac0       0x48 /usr/local/ps2dev/ps2sdk/ee/lib/libkernel.a(configGetTvScreenType.o)
                0x00000000001a4ac0                configGetTvScreenType
 .text          0x00000000001a4b08       0x50 /usr/local/ps2dev/ps2sdk/ee/lib/libkernel.a(DIntr.o)
                0x00000000001a4b08                DIntr
 .text          0x00000000001a4b58       0x18 /usr/local/ps2dev/ps2sdk/ee/lib/libkernel.a(EIntr.o)
                0x00000000001a4b58                EIntr
 .text          0x00000000001a4b70       0x78 /usr/local/ps2dev/ps2sdk/ee/lib/libkernel.a(EnableIntc.o)
                0x00000000001a4b70                EnableIntc
 .text          0x00000000001a4be8       0x78 /usr/local/ps2dev/ps2sdk/ee/lib/libkernel.a(DisableIntc.o)
                0x00000000001a4be8                DisableIntc
 .text          0x00000000001a4c60       0x80 /usr/local/ps2dev/ps2sdk/ee/lib/libkernel.a(SyncDCache.o)
                0x00000000001a4c60                SyncDCache
 .text          0x00000000001a4ce0       0xa0 /usr/local/ps2dev/ps2sdk/ee/lib/libkernel.a(sio_putc.o)
                0x00000000001a4ce0                sio_putc
 .text          0x00000000001a4d80       0x10 /usr/local/ps2dev/ps2sdk/ee/lib/libkernel.a(cpu_ticks.o)
                0x00000000001a4d80                cpu_ticks
 .text          0x00000000001a4d90       0x10 /usr/local/ps2dev/ps2sdk/ee/lib/libkernel.a(_EnableIntc.o)
                0x00000000001a4d90                _EnableIntc
 .text          0x00000000001a4da0       0x10 /usr/local/ps2dev/ps2sdk/ee/lib/libkernel.a(_DisableIntc.o)
                0x00000000001a4da0                _DisableIntc
 .text          0x00000000001a4db0       0x10 /usr/local/ps2dev/ps2sdk/ee/lib/libkernel.a(GetOsdConfigParam.o)
                0x00000000001a4db0                GetOsdConfigParam
 .text          0x00000000001a4dc0       0x10 /usr/local/ps2dev/ps2sdk/ee/lib/libkernel.a(SifStopDma.o)
                0x00000000001a4dc0                SifStopDma
 .text          0x00000000001a4dd0       0x10 /usr/local/ps2dev/ps2sdk/ee/lib/libkernel.a(SifDmaStat.o)
                0x00000000001a4dd0                SifDmaStat
 .text          0x00000000001a4de0       0x10 /usr/local/ps2dev/ps2sdk/ee/lib/libkernel.a(SifSetDma.o)
                0x00000000001a4de0                SifSetDma
 .text          0x00000000001a4df0       0x10 /usr/local/ps2dev/ps2sdk/ee/lib/libkernel.a(SifSetReg.o)
                0x00000000001a4df0                SifSetReg
 .text          0x00000000001a4e00       0x10 /usr/local/ps2dev/ps2sdk/ee/lib/libkernel.a(SifGetReg.o)
                0x00000000001a4e00                SifGetReg
 .text          0x00000000001a4e10       0xa8 /usr/local/ps2dev/ps2sdk/ee/lib/libkernel.a(_SyncDCache.o)
                0x00000000001a4e10                _SyncDCache
 .text          0x00000000001a4eb8      0x1b0 /usr/local/ps2dev/ps2sdk/ee/lib/libkernel.a(sif_cmd_send.o)
                0x00000000001a4fe8                SifSendCmd
                0x00000000001a5028                iSifSendCmd
 .text          0x00000000001a5068      0x2d0 /usr/local/ps2dev/ps2sdk/ee/lib/libkernel.a(sif_cmd_main.o)
                0x00000000001a5098                SifInitCmd
                0x00000000001a5300                SifExitCmd
 .text          0x00000000001a5338       0x18 /usr/local/ps2dev/ps2sdk/ee/lib/libkernel.a(sif_sreg_get.o)
                0x00000000001a5338                SifGetSreg
 .text          0x00000000001a5350      0x140 /usr/local/ps2dev/ps2sdk/ee/lib/libkernel.a(fio_init.o)
                0x00000000001a5350                fioInit
 .text          0x00000000001a5490       0x20 /usr/local/ps2dev/ps2sdk/ee/lib/libkernel.a(_fio_intr.o)
                0x00000000001a5490                _fio_intr
 .text          0x00000000001a54b0      0x108 /usr/local/ps2dev/ps2sdk/ee/lib/libkernel.a(_SifLoadModule.o)
                0x00000000001a54b0                _SifLoadModule
 .text          0x00000000001a55b8       0xf0 /usr/local/ps2dev/ps2sdk/ee/lib/libkernel.a(_SifLoadModuleBuffer.o)
                0x00000000001a55b8                _SifLoadModuleBuffer
 .text          0x00000000001a56a8       0x50 /usr/local/ps2dev/ps2sdk/ee/lib/libkernel.a(IsT10K.o)
                0x00000000001a56a8                IsT10K
 .text          0x00000000001a56f8       0x78 /usr/local/ps2dev/ps2sdk/ee/lib/libkernel.a(EnableDmac.o)
                0x00000000001a56f8                EnableDmac
 .text          0x00000000001a5770       0x78 /usr/local/ps2dev/ps2sdk/ee/lib/libkernel.a(DisableDmac.o)
                0x00000000001a5770                DisableDmac
 *fill*         0x00000000001a57e8 0x8e44f7000000008 00
 .text          0x00000000001a57f0       0x10 /usr/local/ps2dev/ps2sdk/ee/lib/libkernel.a(AddDmacHandler.o)
                0x00000000001a57f0                AddDmacHandler
 .text          0x00000000001a5800       0x10 /usr/local/ps2dev/ps2sdk/ee/lib/libkernel.a(RemoveDmacHandler.o)
                0x00000000001a5800                RemoveDmacHandler
 .text          0x00000000001a5810       0x10 /usr/local/ps2dev/ps2sdk/ee/lib/libkernel.a(_EnableDmac.o)
                0x00000000001a5810                _EnableDmac
 .text          0x00000000001a5820       0x10 /usr/local/ps2dev/ps2sdk/ee/lib/libkernel.a(_DisableDmac.o)
                0x00000000001a5820                _DisableDmac
 .text          0x00000000001a5830       0x10 /usr/local/ps2dev/ps2sdk/ee/lib/libkernel.a(iSifSetDma.o)
                0x00000000001a5830                iSifSetDma
 .text          0x00000000001a5840       0x10 /usr/local/ps2dev/ps2sdk/ee/lib/libkernel.a(SifSetDChain.o)
                0x00000000001a5840                SifSetDChain
 .text          0x00000000001a5850       0xe0 /usr/local/ps2dev/ps2sdk/ee/lib/libkernel.a(_sif_cmd_int_handler.o)
                0x00000000001a5850                _SifCmdIntHandler
 .text          0x00000000001a5930       0x10 /usr/local/ps2dev/ps2sdk/ee/lib/libkernel.a(iSifSetDChain.o)
                0x00000000001a5930                iSifSetDChain
 .text          0x00000000001a5940       0x78 /usr/local/ps2dev/ee/lib/gcc-lib/ee/3.2.2/libgcc.a(_muldi3.o)
                0x00000000001a5940                __muldi3
 .text          0x00000000001a59b8       0xb8 /usr/local/ps2dev/ee/lib/gcc-lib/ee/3.2.2/libgcc.a(_floatdidf.o)
                0x00000000001a59b8                __floatdidf
 .text          0x00000000001a5a70      0x100 /usr/local/ps2dev/ee/lib/gcc-lib/ee/3.2.2/libgcc.a(_floatdisf.o)
                0x00000000001a5a70                __floatdisf
 .text          0x00000000001a5b70      0x120 /usr/local/ps2dev/ee/lib/gcc-lib/ee/3.2.2/libgcc.a(_fixunsdfdi.o)
                0x00000000001a5b70                __fixunsdfdi
 .text          0x00000000001a5c90       0x78 /usr/local/ps2dev/ee/lib/gcc-lib/ee/3.2.2/libgcc.a(_fixdfdi.o)
                0x00000000001a5c90                __fixdfdi
 .text          0x00000000001a5d08       0x48 /usr/local/ps2dev/ee/lib/gcc-lib/ee/3.2.2/libgcc.a(_fixsfdi.o)
                0x00000000001a5d08                __fixsfdi
 .text          0x00000000001a5d50      0x7f8 /usr/local/ps2dev/ee/lib/gcc-lib/ee/3.2.2/libgcc.a(_divdi3.o)
                0x00000000001a5d50                __divdi3
 .text          0x00000000001a6548      0x7f8 /usr/local/ps2dev/ee/lib/gcc-lib/ee/3.2.2/libgcc.a(_moddi3.o)
                0x00000000001a6548                __moddi3
 .text          0x00000000001a6d40      0x6c8 /usr/local/ps2dev/ee/lib/gcc-lib/ee/3.2.2/libgcc.a(_udivdi3.o)
                0x00000000001a6d40                __udivdi3
 .text          0x00000000001a7408      0x6c8 /usr/local/ps2dev/ee/lib/gcc-lib/ee/3.2.2/libgcc.a(_umoddi3.o)
                0x00000000001a7408                __umoddi3
 .text          0x00000000001a7ad0       0x40 /usr/local/ps2dev/ee/lib/gcc-lib/ee/3.2.2/libgcc.a(_sf_to_df.o)
                0x00000000001a7ad0                fptodp
 .text          0x00000000001a7b10      0x308 /usr/local/ps2dev/ee/lib/gcc-lib/ee/3.2.2/libgcc.a(_addsub_df.o)
                0x00000000001a7da8                dpsub
                0x00000000001a7d48                dpadd
 .text          0x00000000001a7e18      0x2d0 /usr/local/ps2dev/ee/lib/gcc-lib/ee/3.2.2/libgcc.a(_mul_df.o)
                0x00000000001a7e18                dpmul
 .text          0x00000000001a80e8      0x188 /usr/local/ps2dev/ee/lib/gcc-lib/ee/3.2.2/libgcc.a(_div_df.o)
                0x00000000001a80e8                dpdiv
 .text          0x00000000001a8270       0x58 /usr/local/ps2dev/ee/lib/gcc-lib/ee/3.2.2/libgcc.a(_compare_df.o)
                0x00000000001a8270                dpcmp
 .text          0x00000000001a82c8       0xc0 /usr/local/ps2dev/ee/lib/gcc-lib/ee/3.2.2/libgcc.a(_si_to_df.o)
                0x00000000001a82c8                litodp
 .text          0x00000000001a8388       0xa0 /usr/local/ps2dev/ee/lib/gcc-lib/ee/3.2.2/libgcc.a(_df_to_si.o)
                0x00000000001a8388                dptoli
 .text          0x00000000001a8428       0x30 /usr/local/ps2dev/ee/lib/gcc-lib/ee/3.2.2/libgcc.a(_make_df.o)
                0x00000000001a8428                __make_dp
 .text          0x00000000001a8458       0x58 /usr/local/ps2dev/ee/lib/gcc-lib/ee/3.2.2/libgcc.a(_df_to_sf.o)
                0x00000000001a8458                dptofp
 .text          0x00000000001a84b0       0xa8 /usr/local/ps2dev/ee/lib/gcc-lib/ee/3.2.2/libgcc.a(_df_to_usi.o)
                0x00000000001a84b0                dptoul
 .text          0x00000000001a8558      0x130 /usr/local/ps2dev/ee/lib/gcc-lib/ee/3.2.2/libgcc.a(_fixunssfdi.o)
                0x00000000001a8558                __fixunssfdi
 .text          0x00000000001a8688       0xe0 /usr/local/ps2dev/ee/lib/gcc-lib/ee/3.2.2/libgcc.a(_unpack_sf.o)
                0x00000000001a8688                __unpack_f
 .text          0x00000000001a8768       0x30 /usr/local/ps2dev/ee/lib/gcc-lib/ee/3.2.2/libgcc.a(_make_sf.o)
                0x00000000001a8768                __make_fp
 .text          0x00000000001a8798      0x190 /usr/local/ps2dev/ee/lib/gcc-lib/ee/3.2.2/libgcc.a(_pack_df.o)
                0x00000000001a8798                __pack_d
 .text          0x00000000001a8928       0xe8 /usr/local/ps2dev/ee/lib/gcc-lib/ee/3.2.2/libgcc.a(_unpack_df.o)
                0x00000000001a8928                __unpack_d
 .text          0x00000000001a8a10      0x108 /usr/local/ps2dev/ee/lib/gcc-lib/ee/3.2.2/libgcc.a(_fpcmp_parts_df.o)
                0x00000000001a8a10                __fpcmp_parts_d
 .text          0x00000000001a8b18      0x160 /usr/local/ps2dev/ee/lib/gcc-lib/ee/3.2.2/libgcc.a(_pack_sf.o)
                0x00000000001a8b18                __pack_f
 .text          0x00000000001a8c78       0x70 /usr/local/ps2dev/ee/lib/gcc-lib/ee/3.2.2/crtend.o
 *(.text.*)
 *(.gnu.linkonce.t*)
 *(.init)
 .init          0x00000000001a8ce8        0x8 /usr/local/ps2dev/ee/lib/gcc-lib/ee/3.2.2/crti.o
                0x00000000001a8ce8                _init
 .init          0x00000000001a8cf0        0x8 /usr/local/ps2dev/ee/lib/gcc-lib/ee/3.2.2/crtbegin.o
 .init          0x00000000001a8cf8        0x8 /usr/local/ps2dev/ee/lib/gcc-lib/ee/3.2.2/crtend.o
 .init          0x00000000001a8d00        0xc /usr/local/ps2dev/ee/lib/gcc-lib/ee/3.2.2/crtn.o
 *(.fini)
 .fini          0x00000000001a8d0c        0x8 /usr/local/ps2dev/ee/lib/gcc-lib/ee/3.2.2/crti.o
                0x00000000001a8d0c                _fini
 .fini          0x00000000001a8d14        0x8 /usr/local/ps2dev/ee/lib/gcc-lib/ee/3.2.2/crtbegin.o
 .fini          0x00000000001a8d1c        0xc /usr/local/ps2dev/ee/lib/gcc-lib/ee/3.2.2/crtn.o
                0x00000000001a8d28        0x8 QUAD 0x0
                0x00000000001a8d30                PROVIDE (_etext, .)
                0x00000000001a8d30                PROVIDE (etext, .)

.reginfo        0x00000000001a8d30       0x18
 *(.reginfo)
 .reginfo       0x00000000001a8d30       0x18 /usr/local/ps2dev/ee/lib/gcc-lib/ee/3.2.2/crti.o

.ctors          0x00000000001a8d50        0x8
 *crtbegin*.o(.ctors)
 *(EXCLUDE_FILE(*crtend*.o) .ctors)
 .ctors         0x00000000001a8d50        0x4 /usr/local/ps2dev/ee/lib/gcc-lib/ee/3.2.2/crtbegin.o
 *(SORT(.ctors.*))
 *(.ctors)
 .ctors         0x00000000001a8d54        0x4 /usr/local/ps2dev/ee/lib/gcc-lib/ee/3.2.2/crtend.o

.dtors          0x00000000001a8d60        0x8
 *crtbegin*.o(.dtors)
 *(EXCLUDE_FILE(*crtend*.o) .dtors)
 .dtors         0x00000000001a8d60        0x4 /usr/local/ps2dev/ee/lib/gcc-lib/ee/3.2.2/crtbegin.o
 *(SORT(.dtors.*))
 *(.dtors)
 .dtors         0x00000000001a8d64        0x4 /usr/local/ps2dev/ee/lib/gcc-lib/ee/3.2.2/crtend.o

.rodata         0x00000000001a8d80    0x2c138
 *(.rodata)
 .rodata        0x00000000001a8d80      0x1d0 obj/pad.o
 .rodata        0x00000000001a8f50      0x2c8 obj/fntsys.o
 .rodata        0x00000000001a9218       0xd8 obj/renderman.o
                0x00000000001a9240                gDefaultAlpha
                0x00000000001a9230                gColFocus
                0x00000000001a9228                gColDarker
                0x00000000001a9218                gColWhite
                0x00000000001a9238                gDefaultCol
                0x00000000001a9220                gColBlack
 .rodata        0x00000000001a92f0       0x18 obj/menusys.o
 .rodata        0x00000000001a9308       0x38 obj/OSDHistory.o
 .rodata        0x00000000001a9340      0x210 obj/system.o
 .rodata        0x00000000001a9550      0xdc0 obj/lang.o
 .rodata        0x00000000001aa310      0x120 obj/config.o
 .rodata        0x00000000001aa430      0x138 obj/hdd.o
 .rodata        0x00000000001aa568      0x110 obj/dialogs.o
 .rodata        0x00000000001aa678       0xa0 obj/dia.o
 .rodata        0x00000000001aa718      0x7d0 obj/themes.o
 .rodata        0x00000000001aaee8      0x110 obj/supportbase.o
 .rodata        0x00000000001aaff8      0x2a0 obj/usbsupport.o
 .rodata        0x00000000001ab298      0x198 obj/ethsupport.o
 .rodata        0x00000000001ab430      0x1e8 obj/hddsupport.o
 .rodata        0x00000000001ab618       0x90 obj/appsupport.o
 .rodata        0x00000000001ab6a8      0x160 obj/gui.o
 .rodata        0x00000000001ab808      0x188 obj/textures.o
 .rodata        0x00000000001ab990      0x340 obj/opl.o
 .rodata        0x00000000001abcd0       0x50 obj/atlas.o
 .rodata        0x00000000001abd20       0xe0 obj/util.o
 .rodata        0x00000000001abe00       0x30 /usr/local/ps2dev/gsKit/lib/libgskit.a(gsCore.o)
 .rodata        0x00000000001abe30      0x160 /usr/local/ps2dev/gsKit/lib/libgskit.a(gsInit.o)
 .rodata        0x00000000001abf90       0xc8 /usr/local/ps2dev/gsKit/lib/libgskit.a(gsTexture.o)
 .rodata        0x00000000001ac058       0x88 /usr/local/ps2dev/gsKit/lib/libdmakit.a(dmaCore.o)
 .rodata        0x00000000001ac0e0       0xa0 /usr/local/ps2dev/gsKit/lib/libdmakit.a(dmaInit.o)
 .rodata        0x00000000001ac180       0x20 /usr/local/ps2dev/ps2sdk/ee/lib/libpoweroff.a(poweroff.o)
 .rodata        0x00000000001ac1a0       0x18 /usr/local/ps2dev/ps2sdk/ee/lib/libpatches.a(patch_enable_lmb.o)
 .rodata        0x00000000001ac1b8        0x8 /usr/local/ps2dev/ps2sdk/ee/lib/libpatches.a(patch_disable_prefix_check.o)
 .rodata        0x00000000001ac1c0       0x10 /usr/local/ps2dev/ps2sdk/ee/lib/libpatches.a(patch_fioremove.o)
 .rodata        0x00000000001ac1d0       0x10 /usr/local/ps2dev/ps2sdk/ee/lib/libpatches.a(slib.o)
 .rodata        0x00000000001ac1e0       0xb0 /usr/local/ps2dev/ps2sdk/ee/lib/libpad.a(libpad.o)
 .rodata        0x00000000001ac290       0x60 /usr/local/ps2dev/ps2sdk/ports/lib/libjpeg.a(libjpg.o)
 .rodata        0x00000000001ac2f0      0x400 /usr/local/ps2dev/ps2sdk/ports/lib/libjpeg.a(jcparam.o)
 .rodata        0x00000000001ac6f0       0x30 /usr/local/ps2dev/ps2sdk/ports/lib/libjpeg.a(jccolor.o)
 .rodata        0x00000000001ac720       0xc0 /usr/local/ps2dev/ps2sdk/ports/lib/libjpeg.a(jcdctmgr.o)
 .rodata        0x00000000001ac7e0       0x2c /usr/local/ps2dev/ps2sdk/ports/lib/libjpeg.a(jdapimin.o)
 .rodata        0x00000000001ac80c       0x18 /usr/local/ps2dev/ps2sdk/ports/lib/libjpeg.a(jdmaster.o)
 *fill*         0x00000000001ac824 0x8e44f7000000004 00
 .rodata        0x00000000001ac828       0x80 /usr/local/ps2dev/ps2sdk/ports/lib/libjpeg.a(jdhuff.o)
 .rodata        0x00000000001ac8a8       0x80 /usr/local/ps2dev/ps2sdk/ports/lib/libjpeg.a(jdphuff.o)
 .rodata        0x00000000001ac928       0xc0 /usr/local/ps2dev/ps2sdk/ports/lib/libjpeg.a(jddctmgr.o)
 .rodata        0x00000000001ac9e8       0x18 /usr/local/ps2dev/ps2sdk/ports/lib/libjpeg.a(jdcolor.o)
 .rodata        0x00000000001aca00      0x110 /usr/local/ps2dev/ps2sdk/ports/lib/libjpeg.a(jquant1.o)
 .rodata        0x00000000001acb10      0x140 /usr/local/ps2dev/ps2sdk/ports/lib/libjpeg.a(jutils.o)
                0x00000000001acb10                jpeg_natural_order
 .rodata        0x00000000001acc50     0x1588 /usr/local/ps2dev/ps2sdk/ports/lib/libjpeg.a(jerror.o)
                0x00000000001adfd8                jpeg_std_message_table
 .rodata        0x00000000001ae1d8       0x20 /usr/local/ps2dev/ps2sdk/ports/lib/libjpeg.a(jmemmgr.o)
 .rodata        0x00000000001ae1f8      0x2b8 /usr/local/ps2dev/ps2sdk/ports/lib/libpng.a(png.o)
                0x00000000001ae258                png_pass_ystart
                0x00000000001ae218                png_pass_start
                0x00000000001ae2b8                png_pass_dsp_mask
                0x00000000001ae210                png_sig
                0x00000000001ae298                png_pass_mask
                0x00000000001ae238                png_pass_inc
                0x00000000001ae278                png_pass_yinc
                0x00000000001ae1f8                png_libpng_ver
 .rodata        0x00000000001ae4b0       0x98 /usr/local/ps2dev/ps2sdk/ports/lib/libpng.a(pngget.o)
 .rodata        0x00000000001ae548      0x300 /usr/local/ps2dev/ps2sdk/ports/lib/libpng.a(pngtrans.o)
 .rodata        0x00000000001ae848      0x3a8 /usr/local/ps2dev/ps2sdk/ports/lib/libpng.a(pngread.o)
 .rodata        0x00000000001aebf0       0xb0 /usr/local/ps2dev/ps2sdk/ports/lib/libpng.a(pngrio.o)
 .rodata        0x00000000001aeca0      0x288 /usr/local/ps2dev/ps2sdk/ports/lib/libpng.a(pngrtran.o)
 .rodata        0x00000000001aef28       0x50 /usr/local/ps2dev/ps2sdk/ports/lib/libpng.a(pngmem.o)
 .rodata        0x00000000001aef78       0xa0 /usr/local/ps2dev/ps2sdk/ports/lib/libpng.a(pngerror.o)
 .rodata        0x00000000001af018     0x10a0 /usr/local/ps2dev/ps2sdk/ports/lib/libpng.a(pngrutil.o)
 .rodata        0x00000000001b00b8      0x5d0 /usr/local/ps2dev/ps2sdk/ports/lib/libpng.a(pngset.o)
 .rodata        0x00000000001b0688     0x4000 /usr/local/ps2dev/ps2sdk/ports/lib/libz.a(crc32.o)
 .rodata        0x00000000001b4688      0xb08 /usr/local/ps2dev/ps2sdk/ports/lib/libz.a(inflate.o)
 .rodata        0x00000000001b5190      0x130 /usr/local/ps2dev/ps2sdk/ports/lib/libz.a(inftrees.o)
                0x00000000001b5190                inflate_copyright
 .rodata        0x00000000001b52c0       0xc8 /usr/local/ps2dev/ps2sdk/ports/lib/libz.a(zutil.o)
                0x00000000001b5358                z_errmsg
 .rodata        0x00000000001b5388       0x58 /usr/local/ps2dev/ps2sdk/ports/lib/libz.a(inffast.o)
 .rodata        0x00000000001b53e0       0x10 /usr/local/ps2dev/ee/lib/gcc-lib/ee/3.2.2/../../../../ee/lib/libm.a(s_ceil.o)
 .rodata        0x00000000001b53f0       0x10 /usr/local/ps2dev/ee/lib/gcc-lib/ee/3.2.2/../../../../ee/lib/libm.a(s_floor.o)
 .rodata        0x00000000001b5400       0x20 /usr/local/ps2dev/ee/lib/gcc-lib/ee/3.2.2/../../../../ee/lib/libm.a(w_pow.o)
 .rodata        0x00000000001b5420      0x1d0 /usr/local/ps2dev/ee/lib/gcc-lib/ee/3.2.2/../../../../ee/lib/libm.a(e_pow.o)
 .rodata        0x00000000001b55f0       0x10 /usr/local/ps2dev/ee/lib/gcc-lib/ee/3.2.2/../../../../ee/lib/libm.a(e_sqrt.o)
 .rodata        0x00000000001b5600        0x8 /usr/local/ps2dev/ee/lib/gcc-lib/ee/3.2.2/../../../../ee/lib/libm.a(s_infconst.o)
                0x00000000001b5600                __infinity
 .rodata        0x00000000001b5608        0x4 /usr/local/ps2dev/ee/lib/gcc-lib/ee/3.2.2/../../../../ee/lib/libm.a(s_lib_ver.o)
                0x00000000001b5608                __fdlib_version
 *fill*         0x00000000001b560c 0x8e44f7000000004 00
 .rodata        0x00000000001b5610       0x10 /usr/local/ps2dev/ee/lib/gcc-lib/ee/3.2.2/../../../../ee/lib/libm.a(s_rint.o)
 .rodata        0x00000000001b5620       0x30 /usr/local/ps2dev/ee/lib/gcc-lib/ee/3.2.2/../../../../ee/lib/libm.a(s_scalbn.o)
 .rodata        0x00000000001b5650       0x88 /usr/local/ps2dev/ps2sdk/ee/lib/libmc.a(libmc.o)
 .rodata        0x00000000001b56d8       0x50 /usr/local/ps2dev/ps2sdk/ports/lib/libfreetype.a(ftinit.o)
 .rodata        0x00000000001b5728      0x208 /usr/local/ps2dev/ps2sdk/ports/lib/libfreetype.a(ftbase.o)
                0x00000000001b5728                _debug_mem_dummy
 .rodata        0x00000000001b5930      0x4c8 /usr/local/ps2dev/ps2sdk/ports/lib/libfreetype.a(autohint.o)
                0x00000000001b5dc0                autohint_module_class
                0x00000000001b5930                ah_arctan
                0x00000000001b5da0                ft_autohinter_service
 .rodata        0x00000000001b5df8     0x1148 /usr/local/ps2dev/ps2sdk/ports/lib/libfreetype.a(bdf.o)
                0x00000000001b6e28                bdf_cmap_class
                0x00000000001b6ec0                bdf_driver_class
 .rodata        0x00000000001b6f40     0x11c8 /usr/local/ps2dev/ps2sdk/ports/lib/libfreetype.a(cff.o)
                0x00000000001b80f0                cff_cmap_unicode_class_rec
                0x00000000001b6ff8                cff_driver_class
                0x00000000001b80d8                cff_cmap_encoding_class_rec
 .rodata        0x00000000001b8108      0xa90 /usr/local/ps2dev/ps2sdk/ports/lib/libfreetype.a(type1cid.o)
                0x00000000001b8b18                t1cid_driver_class
 .rodata        0x00000000001b8b98      0x410 /usr/local/ps2dev/ps2sdk/ports/lib/libfreetype.a(pcf.o)
                0x00000000001b8f28                pcf_driver_class
                0x00000000001b8ea8                pcf_cmap_class
 .rodata        0x00000000001b8fa8      0x1d0 /usr/local/ps2dev/ps2sdk/ports/lib/libfreetype.a(pfr.o)
                0x00000000001b90f8                pfr_driver_class
                0x00000000001b9098                pfr_metrics_service_rec
                0x00000000001b9080                pfr_cmap_class_rec
 .rodata        0x00000000001b9178      0x3a0 /usr/local/ps2dev/ps2sdk/ports/lib/libfreetype.a(psaux.o)
                0x00000000001b9260                t1_builder_funcs
                0x00000000001b9228                ps_parser_funcs
                0x00000000001b9280                t1_decoder_funcs
                0x00000000001b9218                ps_table_funcs
                0x00000000001b9290                t1_cmap_classes
                0x00000000001b94b8                t1_cmap_standard_class_rec
                0x00000000001b9500                t1_cmap_unicode_class_rec
                0x00000000001b94d0                t1_cmap_expert_class_rec
                0x00000000001b92c0                psaux_module_class
                0x00000000001b94e8                t1_cmap_custom_class_rec
 .rodata        0x00000000001b9518       0x58 /usr/local/ps2dev/ps2sdk/ports/lib/libfreetype.a(pshinter.o)
                0x00000000001b9538                pshinter_module_class
 .rodata        0x00000000001b9570    0x18058 /usr/local/ps2dev/ps2sdk/ports/lib/libfreetype.a(psnames.o)
                0x00000000001d1590                psnames_module_class
 .rodata        0x00000000001d15c8       0xc8 /usr/local/ps2dev/ps2sdk/ports/lib/libfreetype.a(raster.o)
                0x00000000001d15e8                ft_raster1_renderer_class
                0x00000000001d1640                ft_raster5_renderer_class
                0x00000000001d15c8                ft_standard_raster
 .rodata        0x00000000001d1690      0x770 /usr/local/ps2dev/ps2sdk/ports/lib/libfreetype.a(sfnt.o)
                0x00000000001d19c8                tt_cmap6_class_rec
                0x00000000001d1978                tt_cmap2_class_rec
                0x00000000001d1a40                tt_cmap12_class_rec
                0x00000000001d1ca8                sbit_metrics_fields
                0x00000000001d19a0                tt_cmap4_class_rec
                0x00000000001d19f0                tt_cmap8_class_rec
                0x00000000001d1a18                tt_cmap10_class_rec
                0x00000000001d1c70                sfnt_module_class
                0x00000000001d1950                tt_cmap0_class_rec
 .rodata        0x00000000001d1e00      0x150 /usr/local/ps2dev/ps2sdk/ports/lib/libfreetype.a(smooth.o)
                0x00000000001d1ea0                ft_smooth_lcd_renderer_class
                0x00000000001d1f00                ft_smooth_lcdv_renderer_class
                0x00000000001d1e20                ft_grays_raster
                0x00000000001d1e40                ft_smooth_renderer_class
 .rodata        0x00000000001d1f50      0x198 /usr/local/ps2dev/ps2sdk/ports/lib/libfreetype.a(truetype.o)
                0x00000000001d1fd0                tt_driver_class
 .rodata        0x00000000001d20e8      0x9c0 /usr/local/ps2dev/ps2sdk/ports/lib/libfreetype.a(type1.o)
                0x00000000001d2a28                t1_driver_class
 .rodata        0x00000000001d2aa8      0x540 /usr/local/ps2dev/ps2sdk/ports/lib/libfreetype.a(type42.o)
                0x00000000001d2f68                t42_driver_class
 .rodata        0x00000000001d2fe8      0x1e8 /usr/local/ps2dev/ps2sdk/ports/lib/libfreetype.a(winfnt.o)
                0x00000000001d3150                winfnt_driver_class
 .rodata        0x00000000001d31d0        0x8 /usr/local/ps2dev/ps2sdk/ports/lib/libfreetype.a(ftsystem.o)
 .rodata        0x00000000001d31d8       0x50 /usr/local/ps2dev/ps2sdk/ports/lib/libfreetype.a(ftglyph.o)
                0x00000000001d3200                ft_outline_glyph_class
                0x00000000001d31d8                ft_bitmap_glyph_class
 .rodata        0x00000000001d3228     0x1650 /usr/local/ps2dev/ps2sdk/ports/lib/libfreetype.a(ftgzip.o)
 .rodata        0x00000000001d4878       0x10 /usr/local/ps2dev/ps2sdk/ports/lib/libfreetype.a(ftlzw.o)
 .rodata        0x00000000001d4888       0x30 /usr/local/ps2dev/ps2sdk/ee/lib/libcdvd.a(cdInit.o)
 .rodata        0x00000000001d48b8       0x40 /usr/local/ps2dev/ps2sdk/ee/lib/libcdvd.a(cdDiskReady.o)
 .rodata        0x00000000001d48f8       0x10 /usr/local/ps2dev/ps2sdk/ee/lib/libcdvd.a(cdSync.o)
 .rodata        0x00000000001d4908       0x40 /usr/local/ps2dev/ps2sdk/ee/lib/libcdvd.a(cdCheckNCmd.o)
 .rodata        0x00000000001d4948       0x40 /usr/local/ps2dev/ps2sdk/ee/lib/libcdvd.a(cdReadClock.o)
 .rodata        0x00000000001d4988       0x10 /usr/local/ps2dev/ps2sdk/ee/lib/libcdvd.a(cdStatus.o)
 .rodata        0x00000000001d4998       0x40 /usr/local/ps2dev/ps2sdk/ee/lib/libcdvd.a(cdCheckSCmd.o)
 .rodata        0x00000000001d49d8       0x10 /usr/local/ps2dev/ps2sdk/ee/lib/libcdvd.a(cdSyncS.o)
 .rodata        0x00000000001d49e8       0x18 /usr/local/ps2dev/ps2sdk/ee/lib/libc.a(terminate.o)
 .rodata        0x00000000001d4a00       0x10 /usr/local/ps2dev/ps2sdk/ee/lib/libc.a(fopen.o)
 .rodata        0x00000000001d4a10       0x60 /usr/local/ps2dev/ps2sdk/ee/lib/libc.a(getfdtype.o)
 .rodata        0x00000000001d4a70       0x18 /usr/local/ps2dev/ps2sdk/ee/lib/libc.a(strtod.o)
 .rodata        0x00000000001d4a88       0x28 /usr/local/ps2dev/ps2sdk/ee/lib/libc.a(__assert_fail.o)
 .rodata        0x00000000001d4ab0        0x8 /usr/local/ps2dev/ps2sdk/ee/lib/libc.a(init_args.o)
 .rodata        0x00000000001d4ab8      0x188 /usr/local/ps2dev/ps2sdk/ee/lib/libc.a(vxprintf.o)
 .rodata        0x00000000001d4c40      0x150 /usr/local/ps2dev/ps2sdk/ee/lib/libc.a(vxscanf.o)
 .rodata        0x00000000001d4d90       0x10 /usr/local/ps2dev/ps2sdk/ee/lib/libkernel.a(GetRomName.o)
 .rodata        0x00000000001d4da0       0x18 /usr/local/ps2dev/ee/lib/gcc-lib/ee/3.2.2/libgcc.a(_thenan_df.o)
                0x00000000001d4da0                __thenan_df
 .rodata        0x00000000001d4db8      0x100 /usr/local/ps2dev/ee/lib/gcc-lib/ee/3.2.2/libgcc.a(_clz.o)
                0x00000000001d4db8                __clz_tab
 *(.rodata.*)
 *(.gnu.linkonce.r*)

.rel.dyn

.data           0x00000000001d4f00   0x106c48
                0x00000000001d4f00                _fdata = .
 *(.data)
 .data          0x00000000001d4f00        0x8 /usr/local/ps2dev/ee/lib/gcc-lib/ee/3.2.2/crtbegin.o
                0x00000000001d4f00                __dso_handle
 .data          0x00000000001d4f08        0x8 obj/pad.o
 .data          0x00000000001d4f10        0x4 obj/fntsys.o
 *fill*         0x00000000001d4f14 0x8e4574800000004 00
 .data          0x00000000001d4f18       0x48 obj/renderman.o
 .data          0x00000000001d4f60      0x290 obj/lang.o
 .data          0x00000000001d51f0      0x108 obj/config.o
 .data          0x00000000001d52f8        0x4 obj/hdd.o
 *fill*         0x00000000001d52fc 0x8e4574800000004 00
 .data          0x00000000001d5300     0x68a0 obj/dialogs.o
                0x00000000001d6d40                diaCompatConfig
                0x00000000001d9978                diaUIConfig
                0x00000000001dafc0                diaAbout
                0x00000000001d5300                diaIPConfig
                0x00000000001d8388                diaConfig
 .data          0x00000000001dbba0       0x14 obj/ioman.o
 *fill*         0x00000000001dbbb4 0x8e4574800000004 00
 .data          0x00000000001dbbb8       0x50 obj/themes.o
 .data          0x00000000001dbc08       0x98 obj/usbsupport.o
 .data          0x00000000001dbca0       0x68 obj/ethsupport.o
 .data          0x00000000001dbd08       0x80 obj/hddsupport.o
                0x00000000001dbd14                oplPart
 .data          0x00000000001dbd88       0x68 obj/appsupport.o
 .data          0x00000000001dbdf0      0x120 obj/gui.o
 .data          0x00000000001dbf10      0x150 obj/textures.o
 .data          0x00000000001dc060       0x18 obj/opl.o
 *fill*         0x00000000001dc078 0x8e4574800000008 00
 .data          0x00000000001dc080     0x12c0 obj/usb_icon.o
                0x00000000001dc080                usb_png
 .data          0x00000000001dd340     0x1b20 obj/hdd_icon.o
                0x00000000001dd340                hdd_png
 .data          0x00000000001dee60     0x1460 obj/eth_icon.o
                0x00000000001dee60                eth_png
 .data          0x00000000001e02c0     0x16d0 obj/app_icon.o
                0x00000000001e02c0                app_png
 .data          0x00000000001e1990      0x280 obj/cross_icon.o
                0x00000000001e1990                cross_png
 .data          0x00000000001e1c10      0x2e0 obj/triangle_icon.o
                0x00000000001e1c10                triangle_png
 .data          0x00000000001e1ef0      0x280 obj/circle_icon.o
                0x00000000001e1ef0                circle_png
 .data          0x00000000001e2170      0x1f0 obj/square_icon.o
                0x00000000001e2170                square_png
 .data          0x00000000001e2360      0x100 obj/select_icon.o
                0x00000000001e2360                select_png
 .data          0x00000000001e2460      0x2f0 obj/start_icon.o
                0x00000000001e2460                start_png
 .data          0x00000000001e2750      0x180 obj/left_icon.o
                0x00000000001e2750                left_png
 .data          0x00000000001e28d0      0x1e0 obj/right_icon.o
                0x00000000001e28d0                right_png
 .data          0x00000000001e2ab0      0x1b0 obj/up_icon.o
                0x00000000001e2ab0                up_png
 .data          0x00000000001e2c60      0x1d0 obj/down_icon.o
                0x00000000001e2c60                down_png
 .data          0x00000000001e2e30      0x170 obj/L1_icon.o
                0x00000000001e2e30                L1_png
 .data          0x00000000001e2fa0      0x1d0 obj/L2_icon.o
                0x00000000001e2fa0                L2_png
 .data          0x00000000001e3170      0x1e0 obj/R1_icon.o
                0x00000000001e3170                R1_png
 .data          0x00000000001e3350      0x220 obj/R2_icon.o
                0x00000000001e3350                R2_png
 .data          0x00000000001e3570      0x310 obj/load0.o
                0x00000000001e3570                load0_png
 .data          0x00000000001e3880      0x300 obj/load1.o
                0x00000000001e3880                load1_png
 .data          0x00000000001e3b80      0x300 obj/load2.o
                0x00000000001e3b80                load2_png
 .data          0x00000000001e3e80      0x300 obj/load3.o
                0x00000000001e3e80                load3_png
 .data          0x00000000001e4180      0x300 obj/load4.o
                0x00000000001e4180                load4_png
 .data          0x00000000001e4480      0x300 obj/load5.o
                0x00000000001e4480                load5_png
 .data          0x00000000001e4780      0x300 obj/load6.o
                0x00000000001e4780                load6_png
 .data          0x00000000001e4a80      0x310 obj/load7.o
                0x00000000001e4a80                load7_png
 .data          0x00000000001e4d90     0xd800 obj/logo.o
                0x00000000001e4d90                logo_png
 .data          0x00000000001f2590     0x3180 obj/freesans.o
                0x00000000001f2590                freesansfont_raw
 .data          0x00000000001f5710      0x3d0 obj/icon_sys.o
                0x00000000001f5710                icon_sys
 .data          0x00000000001f5ae0     0x4480 obj/icon_icn.o
                0x00000000001f5ae0                icon_icn
 .data          0x00000000001f9f60      0x3d0 obj/icon_sys_A.o
                0x00000000001f9f60                icon_sys_A
 .data          0x00000000001fa330      0x330 obj/icon_sys_J.o
                0x00000000001fa330                icon_sys_J
 .data          0x00000000001fa660    0x15570 obj/ee_core.o
                0x00000000001fa660                eecore_elf
 .data          0x000000000020fbd0    0x15570 obj/alt_ee_core.o
                0x000000000020fbd0                alt_eecore_elf
 .data          0x0000000000225140     0x2cc0 obj/elfldr.o
                0x0000000000225140                elfldr_elf
 .data          0x0000000000227e00      0x4a0 obj/imgdrv.o
                0x0000000000227e00                imgdrv_irx
 .data          0x00000000002282a0      0x5c0 obj/eesync.o
                0x00000000002282a0                eesync_irx
 .data          0x0000000000228860     0x7520 obj/usb_cdvdman.o
                0x0000000000228860                usb_cdvdman_irx
 .data          0x000000000022fd80     0x7500 obj/usb_4Ksectors_cdvdman.o
                0x000000000022fd80                usb_4Ksectors_cdvdman_irx
 .data          0x0000000000237280     0x8600 obj/smb_cdvdman.o
                0x0000000000237280                smb_cdvdman_irx
 .data          0x000000000023f880     0x8c60 obj/smb_pcmcia_cdvdman.o
                0x000000000023f880                smb_pcmcia_cdvdman_irx
 .data          0x00000000002484e0     0x7860 obj/hdd_cdvdman.o
                0x00000000002484e0                hdd_cdvdman_irx
 .data          0x000000000024fd40     0x7ec0 obj/hdd_pcmcia_cdvdman.o
                0x000000000024fd40                hdd_pcmcia_cdvdman_irx
 .data          0x0000000000257c00     0x6ae0 obj/hdd_hdpro_cdvdman.o
                0x0000000000257c00                hdd_hdpro_cdvdman_irx
 .data          0x000000000025e6e0     0x2420 obj/cdvdfsv.o
                0x000000000025e6e0                cdvdfsv_irx
 .data          0x0000000000260b00     0x6740 obj/usbd_ps2.o
                0x0000000000260b00                usbd_ps2_irx
 .data          0x0000000000267240     0x5e70 obj/usbd_ps3.o
                0x0000000000267240                usbd_ps3_irx
 .data          0x000000000026d0b0    0x103e0 obj/usbhdfsd.o
                0x000000000026d0b0                usbhdfsd_irx
 .data          0x000000000027d490      0xad0 obj/cddev.o
                0x000000000027d490                cddev_irx
 .data          0x000000000027df60     0x2110 obj/ps2dev9.o
                0x000000000027df60                ps2dev9_irx
 .data          0x0000000000280070      0x520 obj/smsutils.o
                0x0000000000280070                smsutils_irx
 .data          0x0000000000280590    0x10b20 obj/smstcpip.o
                0x0000000000280590                smstcpip_irx
 .data          0x00000000002910b0     0xfb80 obj/ingame_smstcpip.o
                0x00000000002910b0                ingame_smstcpip_irx
 .data          0x00000000002a0c30     0x3020 obj/smap.o
                0x00000000002a0c30                smap_irx
 .data          0x00000000002a3c50     0x21b0 obj/smap_ingame.o
                0x00000000002a3c50                smap_ingame_irx
 .data          0x00000000002a5e00     0xa390 obj/smbman.o
                0x00000000002a5e00                smbman_irx
 .data          0x00000000002b0190      0x9f0 obj/discid.o
                0x00000000002b0190                discid_irx
 .data          0x00000000002b0b80     0x2da0 obj/ps2atad.o
                0x00000000002b0b80                ps2atad_irx
 .data          0x00000000002b3920     0x24c0 obj/hdpro_atad.o
                0x00000000002b3920                hdpro_atad_irx
 .data          0x00000000002b5de0      0xd60 obj/poweroff.o
                0x00000000002b5de0                poweroff_irx
 .data          0x00000000002b6b40     0x67b0 obj/ps2hdd.o
                0x00000000002b6b40                ps2hdd_irx
 .data          0x00000000002bd2f0     0x2550 obj/genvmc.o
                0x00000000002bd2f0                genvmc_irx
 .data          0x00000000002bf840     0x15a0 obj/hdldsvr.o
                0x00000000002bf840                hdldsvr_irx
 .data          0x00000000002c0de0      0xde0 obj/udptty.o
                0x00000000002c0de0                udptty_irx
 .data          0x00000000002c1bc0     0x29f0 obj/iomanx.o
                0x00000000002c1bc0                iomanx_irx
 .data          0x00000000002c45b0     0x2180 obj/filexio.o
                0x00000000002c45b0                filexio_irx
 .data          0x00000000002c6730     0xd5a0 obj/ps2fs.o
                0x00000000002c6730                ps2fs_irx
 .data          0x00000000002d3cd0       0x18 obj/util.o
 *fill*         0x00000000002d3ce8 0x8e4574800000008 00
 .data          0x00000000002d3cf0     0x1210 obj/ioptrap.o
                0x00000000002d3cf0                ioptrap_irx
 .data          0x00000000002d4f00     0x5fb0 obj/ps2link.o
                0x00000000002d4f00                ps2link_irx
 .data          0x00000000002daeb0      0x180 /usr/local/ps2dev/gsKit/lib/libdmakit.a(dmaCore.o)
 .data          0x00000000002db030      0x180 /usr/local/ps2dev/gsKit/lib/libdmakit.a(dmaInit.o)
 .data          0x00000000002db1b0       0x14 /usr/local/ps2dev/ps2sdk/ee/lib/libpoweroff.a(poweroff.o)
 .data          0x00000000002db1c4       0x10 /usr/local/ps2dev/ps2sdk/ee/lib/libfileXio.a(fileXio_rpc.o)
 *fill*         0x00000000002db1d4 0x8e4574800000004 00
 .data          0x00000000002db1d8       0x80 /usr/local/ps2dev/ps2sdk/ee/lib/libpatches.a(patch_enable_lmb.o)
 .data          0x00000000002db258        0x8 /usr/local/ps2dev/ps2sdk/ee/lib/libpatches.a(slib.o)
                0x00000000002db258                _slib_cur_exp_lib_list
 .data          0x00000000002db260        0x8 /usr/local/ps2dev/ps2sdk/ee/lib/libpad.a(libpad.o)
 .data          0x00000000002db268       0xa8 /usr/local/ps2dev/ps2sdk/ports/lib/libpng.a(png.o)
                0x00000000002db300                png_tRNS
                0x00000000002db2b0                png_iTXt
                0x00000000002db278                png_IEND
                0x00000000002db2a0                png_hIST
                0x00000000002db298                png_gAMA
                0x00000000002db288                png_bKGD
                0x00000000002db2e0                png_sPLT
                0x00000000002db2d8                png_sBIT
                0x00000000002db2c8                png_sCAL
                0x00000000002db280                png_PLTE
                0x00000000002db2a8                png_iCCP
                0x00000000002db308                png_zTXt
                0x00000000002db268                png_IHDR
                0x00000000002db2f8                png_tIME
                0x00000000002db290                png_cHRM
                0x00000000002db2c0                png_pCAL
                0x00000000002db2e8                png_sRGB
                0x00000000002db2f0                png_tEXt
                0x00000000002db2d0                png_pHYs
                0x00000000002db270                png_IDAT
                0x00000000002db2b8                png_oFFs
 .data          0x00000000002db310       0x10 /usr/local/ps2dev/ps2sdk/ee/lib/libdebug.a(screenshot.o)
 .data          0x00000000002db320       0x1c /usr/local/ps2dev/ps2sdk/ee/lib/libmc.a(libmc.o)
 .data          0x00000000002db33c       0x10 /usr/local/ps2dev/ps2sdk/ee/lib/libcdvd.a(_ncmd_internals.o)
                0x00000000002db348                streamStatus
                0x00000000002db344                nCmdNum
                0x00000000002db33c                bindNCmd
                0x00000000002db340                nCmdSemaId
 .data          0x00000000002db34c        0xc /usr/local/ps2dev/ps2sdk/ee/lib/libcdvd.a(_scmd_internals.o)
                0x00000000002db34c                bindSCmd
                0x00000000002db354                sCmdNum
                0x00000000002db350                sCmdSemaId
 .data          0x00000000002db358       0x20 /usr/local/ps2dev/ps2sdk/ee/lib/libcdvd.a(_libcdvd_internals.o)
                0x00000000002db368                callbackSemaId
                0x00000000002db370                cdThreadId
                0x00000000002db35c                bindDiskReady
                0x00000000002db360                bindSearchFile
                0x00000000002db36c                cbSema
                0x00000000002db374                callbackThreadId
                0x00000000002db358                bindInit
                0x00000000002db364                cdDebug
 .data          0x00000000002db378        0xc /usr/local/ps2dev/ps2sdk/ee/lib/libc.a(malloc.o)
                0x00000000002db37c                __alloc_heap_head
                0x00000000002db378                __alloc_heap_base
                0x00000000002db380                __alloc_heap_tail
 .data          0x00000000002db384        0x4 /usr/local/ps2dev/ps2sdk/ee/lib/libc.a(__alloc_internals.o)
 .data          0x00000000002db388      0x1a0 /usr/local/ps2dev/ps2sdk/ee/lib/libc.a(getfdtype.o)
                0x00000000002db388                __direct_pwd
 .data          0x00000000002db528      0x188 /usr/local/ps2dev/ps2sdk/ee/lib/libc.a(stdio.o)
                0x00000000002db528                __stdio_initialised
                0x00000000002db530                __iob
 .data          0x00000000002db6b0       0x1c /usr/local/ps2dev/ps2sdk/ee/lib/libc.a(__stdio_internals.o)
                0x00000000002db6b0                _ps2sdk_close
                0x00000000002db6c0                _ps2sdk_write
                0x00000000002db6bc                _ps2sdk_lseek
                0x00000000002db6b4                _ps2sdk_open
                0x00000000002db6c8                _ps2sdk_rename
                0x00000000002db6c4                _ps2sdk_remove
                0x00000000002db6b8                _ps2sdk_read
 .data          0x00000000002db6cc        0xc /usr/local/ps2dev/ps2sdk/ee/lib/libc.a(__stdlib_internals.o)
                0x00000000002db6d4                __stdlib_rand_seed
                0x00000000002db6cc                __stdlib_exit_index
                0x00000000002db6d0                __stdlib_mb_shift
 .data          0x00000000002db6d8       0x10 /usr/local/ps2dev/ps2sdk/ee/lib/libc.a(clock.o)
 .data          0x00000000002db6e8        0x4 /usr/local/ps2dev/ps2sdk/ee/lib/libc.a(sbrk.o)
 *fill*         0x00000000002db6ec 0x8e4574800000004 00
 .data          0x00000000002db6f0      0x248 /usr/local/ps2dev/ps2sdk/ee/lib/libc.a(vxprintf.o)
 .data          0x00000000002db938        0x4 /usr/local/ps2dev/ps2sdk/ee/lib/libkernel.a(errno.o)
                0x00000000002db938                errno
 *fill*         0x00000000002db93c 0x8e4574800000004 00
 .data          0x00000000002db940       0x38 /usr/local/ps2dev/ps2sdk/ee/lib/libkernel.a(SifRpcMain.o)
                0x00000000002db940                _sif_rpc_data
 .data          0x00000000002db978        0x8 /usr/local/ps2dev/ps2sdk/ee/lib/libkernel.a(SifLoadFileInit.o)
                0x00000000002db978                _lf_init
 .data          0x00000000002db980        0x8 /usr/local/ps2dev/ps2sdk/ee/lib/libkernel.a(SifInitIopHeap.o)
                0x00000000002db980                _ih_caps
 .data          0x00000000002db988        0x4 /usr/local/ps2dev/ps2sdk/ee/lib/libkernel.a(__iop_control_internals.o)
                0x00000000002db988                _iop_reboot_count
 .data          0x00000000002db98c        0x1 /usr/local/ps2dev/ps2sdk/ee/lib/libkernel.a(sio_putc.o)
 *fill*         0x00000000002db98d 0x8e4574800000003 00
 .data          0x00000000002db990       0x30 /usr/local/ps2dev/ps2sdk/ee/lib/libkernel.a(sif_cmd_main.o)
                0x00000000002db990                _sif_cmd_data
 .data          0x00000000002db9c0        0x8 /usr/local/ps2dev/ps2sdk/ee/lib/libkernel.a(__fio_internals.o)
                0x00000000002db9c4                _fio_completion_sema
                0x00000000002db9c0                _fio_init
 .data          0x00000000002db9c8        0x4 /usr/local/ps2dev/ps2sdk/ee/lib/libkernel.a(fio_init.o)
 *fill*         0x00000000002db9cc 0x8e4574800000004 00
 .data          0x00000000002db9d0       0x18 /usr/local/ps2dev/ps2sdk/ee/lib/libkernel.a(_config_internals.o)
                0x00000000002db9d0                g_t10KConfig
                0x00000000002db9d8                g_RomName
 .data          0x00000000002db9e8       0x5c /usr/local/ps2dev/ee/lib/gcc-lib/ee/3.2.2/libgcc.a(_divdi3.o)
                0x00000000002db9e8                _GLOBAL__F___divdi3
 .data          0x00000000002dba44       0x5c /usr/local/ps2dev/ee/lib/gcc-lib/ee/3.2.2/libgcc.a(_moddi3.o)
                0x00000000002dba44                _GLOBAL__F___moddi3
 .data          0x00000000002dbaa0       0x54 /usr/local/ps2dev/ee/lib/gcc-lib/ee/3.2.2/libgcc.a(_udivdi3.o)
                0x00000000002dbaa0                _GLOBAL__F___udivdi3
 .data          0x00000000002dbaf4       0x54 /usr/local/ps2dev/ee/lib/gcc-lib/ee/3.2.2/libgcc.a(_umoddi3.o)
                0x00000000002dbaf4                _GLOBAL__F___umoddi3
 *(.data.*)
 *(.gnu.linkonce.d*)

.jcr            0x00000000002dbb48        0x4
 .jcr           0x00000000002dbb48        0x4 /usr/local/ps2dev/ee/lib/gcc-lib/ee/3.2.2/crtend.o

.rdata
 *(.rdata)

.gcc_except_table
 *(.gcc_except_table)
                0x00000000002e3b70                _gp = (ALIGN (0x80) + 0x7ff0)

.lit4
 *(.lit4)

.lit8
 *(.lit8)

.sdata          0x00000000002dbb80      0x114
 *(.sdata)
 .sdata         0x00000000002dbb80        0x4 obj/usb_icon.o
                0x00000000002dbb80                size_usb_png
 .sdata         0x00000000002dbb84        0x4 obj/hdd_icon.o
                0x00000000002dbb84                size_hdd_png
 .sdata         0x00000000002dbb88        0x4 obj/eth_icon.o
                0x00000000002dbb88                size_eth_png
 .sdata         0x00000000002dbb8c        0x4 obj/app_icon.o
                0x00000000002dbb8c                size_app_png
 .sdata         0x00000000002dbb90        0x4 obj/cross_icon.o
                0x00000000002dbb90                size_cross_png
 .sdata         0x00000000002dbb94        0x4 obj/triangle_icon.o
                0x00000000002dbb94                size_triangle_png
 .sdata         0x00000000002dbb98        0x4 obj/circle_icon.o
                0x00000000002dbb98                size_circle_png
 .sdata         0x00000000002dbb9c        0x4 obj/square_icon.o
                0x00000000002dbb9c                size_square_png
 .sdata         0x00000000002dbba0        0x4 obj/select_icon.o
                0x00000000002dbba0                size_select_png
 .sdata         0x00000000002dbba4        0x4 obj/start_icon.o
                0x00000000002dbba4                size_start_png
 .sdata         0x00000000002dbba8        0x4 obj/left_icon.o
                0x00000000002dbba8                size_left_png
 .sdata         0x00000000002dbbac        0x4 obj/right_icon.o
                0x00000000002dbbac                size_right_png
 .sdata         0x00000000002dbbb0        0x4 obj/up_icon.o
                0x00000000002dbbb0                size_up_png
 .sdata         0x00000000002dbbb4        0x4 obj/down_icon.o
                0x00000000002dbbb4                size_down_png
 .sdata         0x00000000002dbbb8        0x4 obj/L1_icon.o
                0x00000000002dbbb8                size_L1_png
 .sdata         0x00000000002dbbbc        0x4 obj/L2_icon.o
                0x00000000002dbbbc                size_L2_png
 .sdata         0x00000000002dbbc0        0x4 obj/R1_icon.o
                0x00000000002dbbc0                size_R1_png
 .sdata         0x00000000002dbbc4        0x4 obj/R2_icon.o
                0x00000000002dbbc4                size_R2_png
 .sdata         0x00000000002dbbc8        0x4 obj/load0.o
                0x00000000002dbbc8                size_load0_png
 .sdata         0x00000000002dbbcc        0x4 obj/load1.o
                0x00000000002dbbcc                size_load1_png
 .sdata         0x00000000002dbbd0        0x4 obj/load2.o
                0x00000000002dbbd0                size_load2_png
 .sdata         0x00000000002dbbd4        0x4 obj/load3.o
                0x00000000002dbbd4                size_load3_png
 .sdata         0x00000000002dbbd8        0x4 obj/load4.o
                0x00000000002dbbd8                size_load4_png
 .sdata         0x00000000002dbbdc        0x4 obj/load5.o
                0x00000000002dbbdc                size_load5_png
 .sdata         0x00000000002dbbe0        0x4 obj/load6.o
                0x00000000002dbbe0                size_load6_png
 .sdata         0x00000000002dbbe4        0x4 obj/load7.o
                0x00000000002dbbe4                size_load7_png
 .sdata         0x00000000002dbbe8        0x4 obj/logo.o
                0x00000000002dbbe8                size_logo_png
 .sdata         0x00000000002dbbec        0x4 obj/freesans.o
                0x00000000002dbbec                size_freesansfont_raw
 .sdata         0x00000000002dbbf0        0x4 obj/icon_sys.o
                0x00000000002dbbf0                size_icon_sys
 .sdata         0x00000000002dbbf4        0x4 obj/icon_icn.o
                0x00000000002dbbf4                size_icon_icn
 .sdata         0x00000000002dbbf8        0x4 obj/icon_sys_A.o
                0x00000000002dbbf8                size_icon_sys_A
 .sdata         0x00000000002dbbfc        0x4 obj/icon_sys_J.o
                0x00000000002dbbfc                size_icon_sys_J
 .sdata         0x00000000002dbc00        0x4 obj/ee_core.o
                0x00000000002dbc00                size_eecore_elf
 .sdata         0x00000000002dbc04        0x4 obj/alt_ee_core.o
                0x00000000002dbc04                size_alt_eecore_elf
 .sdata         0x00000000002dbc08        0x4 obj/elfldr.o
                0x00000000002dbc08                size_elfldr_elf
 .sdata         0x00000000002dbc0c        0x4 obj/imgdrv.o
                0x00000000002dbc0c                size_imgdrv_irx
 .sdata         0x00000000002dbc10        0x4 obj/eesync.o
                0x00000000002dbc10                size_eesync_irx
 .sdata         0x00000000002dbc14        0x4 obj/usb_cdvdman.o
                0x00000000002dbc14                size_usb_cdvdman_irx
 .sdata         0x00000000002dbc18        0x4 obj/usb_4Ksectors_cdvdman.o
                0x00000000002dbc18                size_usb_4Ksectors_cdvdman_irx
 .sdata         0x00000000002dbc1c        0x4 obj/smb_cdvdman.o
                0x00000000002dbc1c                size_smb_cdvdman_irx
 .sdata         0x00000000002dbc20        0x4 obj/smb_pcmcia_cdvdman.o
                0x00000000002dbc20                size_smb_pcmcia_cdvdman_irx
 .sdata         0x00000000002dbc24        0x4 obj/hdd_cdvdman.o
                0x00000000002dbc24                size_hdd_cdvdman_irx
 .sdata         0x00000000002dbc28        0x4 obj/hdd_pcmcia_cdvdman.o
                0x00000000002dbc28                size_hdd_pcmcia_cdvdman_irx
 .sdata         0x00000000002dbc2c        0x4 obj/hdd_hdpro_cdvdman.o
                0x00000000002dbc2c                size_hdd_hdpro_cdvdman_irx
 .sdata         0x00000000002dbc30        0x4 obj/cdvdfsv.o
                0x00000000002dbc30                size_cdvdfsv_irx
 .sdata         0x00000000002dbc34        0x4 obj/usbd_ps2.o
                0x00000000002dbc34                size_usbd_ps2_irx
 .sdata         0x00000000002dbc38        0x4 obj/usbd_ps3.o
                0x00000000002dbc38                size_usbd_ps3_irx
 .sdata         0x00000000002dbc3c        0x4 obj/usbhdfsd.o
                0x00000000002dbc3c                size_usbhdfsd_irx
 .sdata         0x00000000002dbc40        0x4 obj/cddev.o
                0x00000000002dbc40                size_cddev_irx
 .sdata         0x00000000002dbc44        0x4 obj/ps2dev9.o
                0x00000000002dbc44                size_ps2dev9_irx
 .sdata         0x00000000002dbc48        0x4 obj/smsutils.o
                0x00000000002dbc48                size_smsutils_irx
 .sdata         0x00000000002dbc4c        0x4 obj/smstcpip.o
                0x00000000002dbc4c                size_smstcpip_irx
 .sdata         0x00000000002dbc50        0x4 obj/ingame_smstcpip.o
                0x00000000002dbc50                size_ingame_smstcpip_irx
 .sdata         0x00000000002dbc54        0x4 obj/smap.o
                0x00000000002dbc54                size_smap_irx
 .sdata         0x00000000002dbc58        0x4 obj/smap_ingame.o
                0x00000000002dbc58                size_smap_ingame_irx
 .sdata         0x00000000002dbc5c        0x4 obj/smbman.o
                0x00000000002dbc5c                size_smbman_irx
 .sdata         0x00000000002dbc60        0x4 obj/discid.o
                0x00000000002dbc60                size_discid_irx
 .sdata         0x00000000002dbc64        0x4 obj/ps2atad.o
                0x00000000002dbc64                size_ps2atad_irx
 .sdata         0x00000000002dbc68        0x4 obj/hdpro_atad.o
                0x00000000002dbc68                size_hdpro_atad_irx
 .sdata         0x00000000002dbc6c        0x4 obj/poweroff.o
                0x00000000002dbc6c                size_poweroff_irx
 .sdata         0x00000000002dbc70        0x4 obj/ps2hdd.o
                0x00000000002dbc70                size_ps2hdd_irx
 .sdata         0x00000000002dbc74        0x4 obj/genvmc.o
                0x00000000002dbc74                size_genvmc_irx
 .sdata         0x00000000002dbc78        0x4 obj/hdldsvr.o
                0x00000000002dbc78                size_hdldsvr_irx
 .sdata         0x00000000002dbc7c        0x4 obj/udptty.o
                0x00000000002dbc7c                size_udptty_irx
 .sdata         0x00000000002dbc80        0x4 obj/iomanx.o
                0x00000000002dbc80                size_iomanx_irx
 .sdata         0x00000000002dbc84        0x4 obj/filexio.o
                0x00000000002dbc84                size_filexio_irx
 .sdata         0x00000000002dbc88        0x4 obj/ps2fs.o
                0x00000000002dbc88                size_ps2fs_irx
 .sdata         0x00000000002dbc8c        0x4 obj/ioptrap.o
                0x00000000002dbc8c                size_ioptrap_irx
 .sdata         0x00000000002dbc90        0x4 obj/ps2link.o
                0x00000000002dbc90                size_ps2link_irx
 *(.sdata.*)
 *(.gnu.linkonce.s*)
                0x00000000002dbc94                _edata = .
                0x00000000002dbc94                PROVIDE (edata, .)

.sbss           0x00000000002dbd00        0x0
                0x00000000002dbd00                _fbss = .
 *(.sbss)
 *(.sbss.*)
 *(.gnu.linkonce.sb*)
 *(.scommon)

.bss            0x00000000002dbd00    0x2eec0
 *(.bss)
 .bss           0x00000000002dbd00        0x2 /usr/local/ps2dev/ee/lib/gcc-lib/ee/3.2.2/crtbegin.o
 *fill*         0x00000000002dbd02 0x8e45dc80000003e 00
 .bss           0x00000000002dbd40      0x180 /usr/local/ps2dev/ps2sdk/ee/startup/crt0.o
 .bss           0x00000000002dbec0      0x700 obj/pad.o
 .bss           0x00000000002dc5c0      0x2d0 obj/fntsys.o
 .bss           0x00000000002dc890       0x14 obj/renderman.o
 *fill*         0x00000000002dc8a4 0x8e45dc800000004 00
 .bss           0x00000000002dc8a8       0x38 obj/menusys.o
 .bss           0x00000000002dc8e0     0x1080 obj/system.o
 .bss           0x00000000002dd960       0x80 obj/lang.o
 .bss           0x00000000002dd9e0       0x48 obj/config.o
 .bss           0x00000000002dda28     0x4000 obj/hdd.o
 .bss           0x00000000002e1a28       0x88 obj/dia.o
 .bss           0x00000000002e1ab0     0x4260 obj/ioman.o
 .bss           0x00000000002e5d10      0x208 obj/themes.o
 .bss           0x00000000002e5f18       0x40 obj/usbsupport.o
 .bss           0x00000000002e5f58       0x40 obj/ethsupport.o
 .bss           0x00000000002e5f98        0x4 obj/hddsupport.o
 .bss           0x00000000002e5f9c        0x4 obj/appsupport.o
 .bss           0x00000000002e5fa0      0xc88 obj/gui.o
 .bss           0x00000000002e6c28      0x208 obj/opl.o
 .bss           0x00000000002e6e30     0x2030 /usr/local/ps2dev/ps2sdk/ee/lib/libpoweroff.a(poweroff.o)
 *fill*         0x00000000002e8e60 0x8e45dc800000020 00
 .bss           0x00000000002e8e80     0x7c80 /usr/local/ps2dev/ps2sdk/ee/lib/libfileXio.a(fileXio_rpc.o)
 .bss           0x00000000002f0b00     0x4000 /usr/local/ps2dev/ps2sdk/ee/lib/libpatches.a(slib.o)
 .bss           0x00000000002f4b00      0x240 /usr/local/ps2dev/ps2sdk/ee/lib/libpad.a(libpad.o)
 .bss           0x00000000002f4d40     0x4000 /usr/local/ps2dev/ps2sdk/ports/lib/libjpeg.a(libjpg.o)
 .bss           0x00000000002f8d40       0x60 /usr/local/ps2dev/ps2sdk/ports/lib/libjpeg.a(jchuff.o)
 .bss           0x00000000002f8da0     0x8000 /usr/local/ps2dev/ps2sdk/ee/lib/libdebug.a(screenshot.o)
 *fill*         0x0000000000300da0 0x8e45dc800000020 00
 .bss           0x0000000000300dc0     0x11c0 /usr/local/ps2dev/ps2sdk/ee/lib/libmc.a(libmc.o)
 .bss           0x0000000000301f80     0x1000 /usr/local/ps2dev/ps2sdk/ee/lib/libc.a(vprintf.o)
 .bss           0x0000000000302f80      0x100 /usr/local/ps2dev/ps2sdk/ee/lib/libc.a(fopen.o)
 .bss           0x0000000000303080     0x1800 /usr/local/ps2dev/ps2sdk/ee/lib/libkernel.a(SifRpcMain.o)
 .bss           0x0000000000304880      0x340 /usr/local/ps2dev/ps2sdk/ee/lib/libkernel.a(sif_cmd_main.o)
 *(.bss.*)
 *(.gnu.linkonce.b*)
 *(COMMON)
 COMMON         0x0000000000304bc0      0x193 obj/pad.o
                                          0x0 (size before relaxing)
                0x0000000000304bc0                gETHStartMode
                0x0000000000304bc4                gAutoRefresh
                0x0000000000304bc8                gVMode
                0x0000000000304bd0                gDefaultTextColor
                0x0000000000304bd8                gETHPrefix
                0x0000000000304bf8                gAutosort
                0x0000000000304bfc                gUSBDelay
                0x0000000000304c00                gPCPort
                0x0000000000304c04                gIPConfigChanged
                0x0000000000304c08                gEnableArt
                0x0000000000304c10                ps2_ip
                0x0000000000304c20                gUSBStartMode
                0x0000000000304c24                gAPPStartMode
                0x0000000000304c28                ps2_gateway
                0x0000000000304c38                gDefaultUITextColor
                0x0000000000304c3c                gHDDStartMode
                0x0000000000304c40                ps2_netmask
                0x0000000000304c50                gUseInfoScreen
                0x0000000000304c54                gEnableDandR
                0x0000000000304c58                gCoverLoadFrames
                0x0000000000304c5c                gVSync
                0x0000000000304c60                gCheckUSBFragmentation
                0x0000000000304c64                gDefaultDevice
                0x0000000000304c68                gRememberLastPlayed
                0x0000000000304c70                gPCShareName
                0x0000000000304c90                gPCUserName
                0x0000000000304cb0                pc_ip
                0x0000000000304cc0                gNetworkStartup
                0x0000000000304cc4                gWideScreen
                0x0000000000304cc8                gDisableDebug
                0x0000000000304ccc                gHDDSpindown
                0x0000000000304cd0                gExitPath
                0x0000000000304cf0                gUSBPrefix
                0x0000000000304d10                gHddStartup
                0x0000000000304d18                gDefaultBgColor
                0x0000000000304d1c                infotxt
                0x0000000000304d20                gPCPassword
                0x0000000000304d40                gBaseMCDir
                0x0000000000304d44                gETHOpMode
                0x0000000000304d48                gScrollSpeed
                0x0000000000304d50                gDefaultSelTextColor
 *fill*         0x0000000000304d53 0x8e45dc800000001 00
 COMMON         0x0000000000304d54        0x8 obj/renderman.o
                                          0x0 (size before relaxing)
                0x0000000000304d54                gsGlobal
                0x0000000000304d58                guiThreadID
 COMMON         0x0000000000304d5c        0xc obj/menusys.o
                                          0x0 (size before relaxing)
                0x0000000000304d5c                gTheme
                0x0000000000304d60                guiInactiveFrames
                0x0000000000304d64                guiFrameId
 COMMON         0x0000000000304d68        0x8 obj/usbsupport.o
                                          0x0 (size before relaxing)
                0x0000000000304d68                usbd_irx
                0x0000000000304d6c                size_usbd_irx
 COMMON         0x0000000000304d70        0x8 obj/gui.o
                                          0x0 (size before relaxing)
                0x0000000000304d70                gUpdateEnd
                0x0000000000304d74                gUpdateList
 *fill*         0x0000000000304d78 0x8e45dc800000008 00
 COMMON         0x0000000000304d80      0xeb0 /usr/local/ps2dev/ps2sdk/ee/lib/libcdvd.a(_ncmd_internals.o)
                                          0x0 (size before relaxing)
                0x0000000000304d80                _rd_intr_data
                0x0000000000304e80                curReadPos
                0x0000000000304ec0                cdda_st_buf
                0x0000000000304f00                clientNCmd
                0x0000000000304f40                tocBuff
                0x0000000000305750                dummyMode
                0x0000000000305780                readChainData
                0x0000000000305ac0                readData
                0x0000000000305b00                readStreamData
                0x0000000000305b40                getTocSendBuff
                0x0000000000305b80                nCmdRecvBuff
                0x0000000000305bc0                seekSector
                0x0000000000305c00                nCmdSendBuff
 *fill*         0x0000000000305c30 0x8e45dc800000010 00
 COMMON         0x0000000000305c40       0xb0 /usr/local/ps2dev/ps2sdk/ee/lib/libcdvd.a(_scmd_internals.o)
                                          0x0 (size before relaxing)
                0x0000000000305c40                clientSCmd
                0x0000000000305c80                sCmdSendBuff
                0x0000000000305cc0                sCmdRecvBuff
 *fill*         0x0000000000305cf0 0x8e45dc800000010 00
 COMMON         0x0000000000305d00      0x3b8 /usr/local/ps2dev/ps2sdk/ee/lib/libcdvd.a(_libcdvd_internals.o)
                                          0x0 (size before relaxing)
                0x0000000000305d00                clientInit
                0x0000000000305d40                initMode
                0x0000000000305d80                clientSearchFile
                0x0000000000305da8                callbackThreadParam
                0x0000000000305e00                clientDiskReady
                0x0000000000305e40                cdCallbackNum
                0x0000000000305e80                searchFileRecvBuff
                0x0000000000305ec0                trayReqData
                0x0000000000305f00                cdCallbackFunc
                0x0000000000305f40                searchFileSendBuff
                0x0000000000306080                diskReadyMode
                0x0000000000306088                cdThreadParam
 COMMON         0x00000000003060b8      0x100 /usr/local/ps2dev/ps2sdk/ee/lib/libc.a(stdio.o)
                                          0x0 (size before relaxing)
                0x00000000003060b8                __stdio_tmpnam
 COMMON         0x00000000003061b8     0x4080 /usr/local/ps2dev/ps2sdk/ee/lib/libc.a(__stdlib_internals.o)
                                          0x0 (size before relaxing)
                0x00000000003061b8                __stdlib_exit_func
                0x0000000000306238                __stdlib_env
 COMMON         0x000000000030a238       0x28 /usr/local/ps2dev/ps2sdk/ee/lib/libkernel.a(SifLoadFileInit.o)
                                          0x0 (size before relaxing)
                0x000000000030a238                _lf_cd
 COMMON         0x000000000030a260       0x28 /usr/local/ps2dev/ps2sdk/ee/lib/libkernel.a(SifInitIopHeap.o)
                                          0x0 (size before relaxing)
                0x000000000030a260                _ih_cd
 *fill*         0x000000000030a288 0x8e45dc800000038 00
 COMMON         0x000000000030a2c0      0x900 /usr/local/ps2dev/ps2sdk/ee/lib/libkernel.a(__fio_internals.o)
                                          0x0 (size before relaxing)
                0x000000000030a2c0                _fio_cd
                0x000000000030a300                _fio_intr_data
                0x000000000030a380                _fio_block_mode
                0x000000000030a3c0                _fio_recv_data
                0x000000000030abc0                _end_bss = .
                0x000000000030abc0                _end = .
                0x000000000030abc0                PROVIDE (end, .)
                0xffffffffffffffff                PROVIDE (_heap_size, 0xffffffffffffffff)
                0xffffffffffffffff                PROVIDE (_stack, 0xffffffffffffffff)
                0x0000000000020000                PROVIDE (_stack_size, 0x20000)
OUTPUT(E2OPL.ELF elf32-littlemips)

.mdebug         0x0000000000000000   0x1d7aac
 .mdebug        0x0000000000000000      0x268 /usr/local/ps2dev/ee/lib/gcc-lib/ee/3.2.2/crti.o
 .mdebug        0x0000000000000268      0x328 /usr/local/ps2dev/ee/lib/gcc-lib/ee/3.2.2/crtbegin.o
 .mdebug        0x0000000000000590      0x600 /usr/local/ps2dev/ps2sdk/ee/startup/crt0.o
 .mdebug        0x0000000000000b90     0xc910 obj/pad.o
 .mdebug        0x000000000000d4a0    0x14110 obj/fntsys.o
 .mdebug        0x00000000000215b0    0x1006c obj/renderman.o
 .mdebug        0x000000000003161c    0x15c34 obj/menusys.o
 .mdebug        0x0000000000047250     0x72f8 obj/OSDHistory.o
 .mdebug        0x000000000004e548     0xeed0 obj/system.o
 .mdebug        0x000000000005d418     0x7cd0 obj/debug.o
 .mdebug        0x00000000000650e8     0xd98c obj/lang.o
 .mdebug        0x0000000000072a74     0xf7f8 obj/config.o
 .mdebug        0x000000000008226c    0x1177c obj/hdd.o
 .mdebug        0x00000000000939e8     0xa1a8 obj/dialogs.o
 .mdebug        0x000000000009db90    0x178f4 obj/dia.o
 .mdebug        0x00000000000b5484     0x6bcc obj/ioman.o
 .mdebug        0x00000000000bc050     0xaaec obj/texcache.o
 .mdebug        0x00000000000c6b3c    0x1f998 obj/themes.o
 .mdebug        0x00000000000e64d4     0xe384 obj/supportbase.o
 .mdebug        0x00000000000f4858    0x107a0 obj/usbsupport.o
 .mdebug        0x0000000000104ff8    0x11aa4 obj/ethsupport.o
 .mdebug        0x0000000000116a9c    0x117a4 obj/hddsupport.o
 .mdebug        0x0000000000128240     0xe888 obj/appsupport.o
 .mdebug        0x0000000000136ac8    0x1cb54 obj/gui.o
 .mdebug        0x000000000015361c     0xf820 obj/textures.o
 .mdebug        0x0000000000162e3c    0x19ff8 obj/opl.o
 .mdebug        0x000000000017ce34     0x54f4 obj/atlas.o
 .mdebug        0x0000000000182328      0x10c obj/usb_icon.o
 .mdebug        0x0000000000182434      0x10c obj/hdd_icon.o
 .mdebug        0x0000000000182540      0x10c obj/eth_icon.o
 .mdebug        0x000000000018264c      0x10c obj/app_icon.o
 .mdebug        0x0000000000182758      0x114 obj/cross_icon.o
 .mdebug        0x000000000018286c      0x11c obj/triangle_icon.o
 .mdebug        0x0000000000182988      0x114 obj/circle_icon.o
 .mdebug        0x0000000000182a9c      0x114 obj/square_icon.o
 .mdebug        0x0000000000182bb0      0x114 obj/select_icon.o
 .mdebug        0x0000000000182cc4      0x114 obj/start_icon.o
 .mdebug        0x0000000000182dd8      0x110 obj/left_icon.o
 .mdebug        0x0000000000182ee8      0x114 obj/right_icon.o
 .mdebug        0x0000000000182ffc      0x108 obj/up_icon.o
 .mdebug        0x0000000000183104      0x110 obj/down_icon.o
 .mdebug        0x0000000000183214      0x108 obj/L1_icon.o
 .mdebug        0x000000000018331c      0x108 obj/L2_icon.o
 .mdebug        0x0000000000183424      0x108 obj/R1_icon.o
 .mdebug        0x000000000018352c      0x108 obj/R2_icon.o
 .mdebug        0x0000000000183634      0x110 obj/load0.o
 .mdebug        0x0000000000183744      0x110 obj/load1.o
 .mdebug        0x0000000000183854      0x110 obj/load2.o
 .mdebug        0x0000000000183964      0x110 obj/load3.o
 .mdebug        0x0000000000183a74      0x110 obj/load4.o
 .mdebug        0x0000000000183b84      0x110 obj/load5.o
 .mdebug        0x0000000000183c94      0x110 obj/load6.o
 .mdebug        0x0000000000183da4      0x110 obj/load7.o
 .mdebug        0x0000000000183eb4      0x108 obj/logo.o
 .mdebug        0x0000000000183fbc      0x11c obj/freesans.o
 .mdebug        0x00000000001840d8      0x10c obj/icon_sys.o
 .mdebug        0x00000000001841e4      0x10c obj/icon_icn.o
 .mdebug        0x00000000001842f0      0x114 obj/icon_sys_A.o
 .mdebug        0x0000000000184404      0x114 obj/icon_sys_J.o
 .mdebug        0x0000000000184518      0x110 obj/ee_core.o
 .mdebug        0x0000000000184628      0x11c obj/alt_ee_core.o
 .mdebug        0x0000000000184744      0x110 obj/elfldr.o
 .mdebug        0x0000000000184854      0x110 obj/imgdrv.o
 .mdebug        0x0000000000184964      0x110 obj/eesync.o
 .mdebug        0x0000000000184a74      0x120 obj/usb_cdvdman.o
 .mdebug        0x0000000000184b94      0x140 obj/usb_4Ksectors_cdvdman.o
 .mdebug        0x0000000000184cd4      0x120 obj/smb_cdvdman.o
 .mdebug        0x0000000000184df4      0x134 obj/smb_pcmcia_cdvdman.o
 .mdebug        0x0000000000184f28      0x120 obj/hdd_cdvdman.o
 .mdebug        0x0000000000185048      0x134 obj/hdd_pcmcia_cdvdman.o
 .mdebug        0x000000000018517c      0x134 obj/hdd_hdpro_cdvdman.o
 .mdebug        0x00000000001852b0      0x114 obj/cdvdfsv.o
 .mdebug        0x00000000001853c4      0x114 obj/usbd_ps2.o
 .mdebug        0x00000000001854d8      0x114 obj/usbd_ps3.o
 .mdebug        0x00000000001855ec      0x114 obj/usbhdfsd.o
 .mdebug        0x0000000000185700      0x110 obj/cddev.o
 .mdebug        0x0000000000185810      0x114 obj/ps2dev9.o
 .mdebug        0x0000000000185924      0x114 obj/smsutils.o
 .mdebug        0x0000000000185a38      0x114 obj/smstcpip.o
 .mdebug        0x0000000000185b4c      0x12c obj/ingame_smstcpip.o
 .mdebug        0x0000000000185c78      0x108 obj/smap.o
 .mdebug        0x0000000000185d80      0x120 obj/smap_ingame.o
 .mdebug        0x0000000000185ea0      0x110 obj/smbman.o
 .mdebug        0x0000000000185fb0      0x110 obj/discid.o
 .mdebug        0x00000000001860c0      0x114 obj/ps2atad.o
 .mdebug        0x00000000001861d4      0x11c obj/hdpro_atad.o
 .mdebug        0x00000000001862f0      0x114 obj/poweroff.o
 .mdebug        0x0000000000186404      0x110 obj/ps2hdd.o
 .mdebug        0x0000000000186514      0x110 obj/genvmc.o
 .mdebug        0x0000000000186624      0x114 obj/hdldsvr.o
 .mdebug        0x0000000000186738      0x110 obj/udptty.o
 .mdebug        0x0000000000186848      0x110 obj/iomanx.o
 .mdebug        0x0000000000186958      0x114 obj/filexio.o
 .mdebug        0x0000000000186a6c      0x110 obj/ps2fs.o
 .mdebug        0x0000000000186b7c     0x8dac obj/util.o
 .mdebug        0x000000000018f928      0x114 obj/ioptrap.o
 .mdebug        0x000000000018fa3c      0x114 obj/ps2link.o
 .mdebug        0x000000000018fb50     0x1194 /usr/local/ps2dev/gsKit/lib/libgskit.a(gsCore.o)
 .mdebug        0x0000000000190ce4      0x58c /usr/local/ps2dev/gsKit/lib/libgskit.a(gsInit.o)
 .mdebug        0x0000000000191270      0x1d8 /usr/local/ps2dev/gsKit/lib/libgskit.a(gsMisc.o)
 .mdebug        0x0000000000191448      0x8e8 /usr/local/ps2dev/gsKit/lib/libgskit.a(gsPrimitive.o)
 .mdebug        0x0000000000191d30      0xb08 /usr/local/ps2dev/gsKit/lib/libgskit.a(gsTexture.o)
 .mdebug        0x0000000000192838      0x7bc /usr/local/ps2dev/gsKit/lib/libdmakit.a(dmaCore.o)
 .mdebug        0x0000000000192ff4      0x3ec /usr/local/ps2dev/gsKit/lib/libdmakit.a(dmaInit.o)
 .mdebug        0x00000000001933e0      0x718 /usr/local/ps2dev/ps2sdk/ee/lib/libpoweroff.a(poweroff.o)
 .mdebug        0x0000000000193af8     0x1700 /usr/local/ps2dev/ps2sdk/ee/lib/libfileXio.a(fileXio_rpc.o)
 .mdebug        0x00000000001951f8      0x2b0 /usr/local/ps2dev/ps2sdk/ee/lib/libpatches.a(patch_enable_lmb.o)
 .mdebug        0x00000000001954a8      0x208 /usr/local/ps2dev/ps2sdk/ee/lib/libpatches.a(patch_disable_prefix_check.o)
 .mdebug        0x00000000001956b0      0x1f4 /usr/local/ps2dev/ps2sdk/ee/lib/libpatches.a(patch_fioremove.o)
 .mdebug        0x00000000001958a4      0x208 /usr/local/ps2dev/ps2sdk/ee/lib/libpatches.a(smem.o)
 .mdebug        0x0000000000195aac      0x234 /usr/local/ps2dev/ps2sdk/ee/lib/libpatches.a(smod.o)
 .mdebug        0x0000000000195ce0      0x2f4 /usr/local/ps2dev/ps2sdk/ee/lib/libpatches.a(slib.o)
 .mdebug        0x0000000000195fd4     0x1004 /usr/local/ps2dev/ps2sdk/ee/lib/libpad.a(libpad.o)
 .mdebug        0x0000000000196fd8      0xfd0 /usr/local/ps2dev/ps2sdk/ports/lib/libjpeg.a(libjpg.o)
 .mdebug        0x0000000000197fa8      0x658 /usr/local/ps2dev/ps2sdk/ports/lib/libjpeg.a(jcapimin.o)
 .mdebug        0x0000000000198600      0x2cc /usr/local/ps2dev/ps2sdk/ports/lib/libjpeg.a(jcapistd.o)
 .mdebug        0x00000000001988cc      0xb2c /usr/local/ps2dev/ps2sdk/ports/lib/libjpeg.a(jcparam.o)
 .mdebug        0x00000000001993f8      0x2dc /usr/local/ps2dev/ps2sdk/ports/lib/libjpeg.a(jcinit.o)
 .mdebug        0x00000000001996d4      0x548 /usr/local/ps2dev/ps2sdk/ports/lib/libjpeg.a(jcmaster.o)
 .mdebug        0x0000000000199c1c      0xa88 /usr/local/ps2dev/ps2sdk/ports/lib/libjpeg.a(jcmarker.o)
 .mdebug        0x000000000019a6a4      0x28c /usr/local/ps2dev/ps2sdk/ports/lib/libjpeg.a(jcmainct.o)
 .mdebug        0x000000000019a930      0x48c /usr/local/ps2dev/ps2sdk/ports/lib/libjpeg.a(jcprepct.o)
 .mdebug        0x000000000019adbc      0x43c /usr/local/ps2dev/ps2sdk/ports/lib/libjpeg.a(jccoefct.o)
 .mdebug        0x000000000019b1f8      0x518 /usr/local/ps2dev/ps2sdk/ports/lib/libjpeg.a(jccolor.o)
 .mdebug        0x000000000019b710      0x694 /usr/local/ps2dev/ps2sdk/ports/lib/libjpeg.a(jcsample.o)
 .mdebug        0x000000000019bda4      0x8ac /usr/local/ps2dev/ps2sdk/ports/lib/libjpeg.a(jchuff.o)
 .mdebug        0x000000000019c650      0x8e0 /usr/local/ps2dev/ps2sdk/ports/lib/libjpeg.a(jcphuff.o)
 .mdebug        0x000000000019cf30      0x44c /usr/local/ps2dev/ps2sdk/ports/lib/libjpeg.a(jcdctmgr.o)
 .mdebug        0x000000000019d37c      0x15c /usr/local/ps2dev/ps2sdk/ports/lib/libjpeg.a(jfdctfst.o)
 .mdebug        0x000000000019d4d8      0x15c /usr/local/ps2dev/ps2sdk/ports/lib/libjpeg.a(jfdctflt.o)
 .mdebug        0x000000000019d634      0x178 /usr/local/ps2dev/ps2sdk/ports/lib/libjpeg.a(jfdctint.o)
 .mdebug        0x000000000019d7ac      0x6a0 /usr/local/ps2dev/ps2sdk/ports/lib/libjpeg.a(jdapimin.o)
 .mdebug        0x000000000019de4c      0x440 /usr/local/ps2dev/ps2sdk/ports/lib/libjpeg.a(jdapistd.o)
 .mdebug        0x000000000019e28c      0x3a0 /usr/local/ps2dev/ps2sdk/ports/lib/libjpeg.a(jdatasrc.o)
 .mdebug        0x000000000019e62c      0x744 /usr/local/ps2dev/ps2sdk/ports/lib/libjpeg.a(jdmaster.o)
 .mdebug        0x000000000019ed70      0x550 /usr/local/ps2dev/ps2sdk/ports/lib/libjpeg.a(jdinput.o)
 .mdebug        0x000000000019f2c0      0xb70 /usr/local/ps2dev/ps2sdk/ports/lib/libjpeg.a(jdmarker.o)
 .mdebug        0x000000000019fe30      0x540 /usr/local/ps2dev/ps2sdk/ports/lib/libjpeg.a(jdhuff.o)
 .mdebug        0x00000000001a0370      0x5b0 /usr/local/ps2dev/ps2sdk/ports/lib/libjpeg.a(jdphuff.o)
 .mdebug        0x00000000001a0920      0x5ec /usr/local/ps2dev/ps2sdk/ports/lib/libjpeg.a(jdmainct.o)
 .mdebug        0x00000000001a0f0c      0x6ac /usr/local/ps2dev/ps2sdk/ports/lib/libjpeg.a(jdcoefct.o)
 .mdebug        0x00000000001a15b8      0x3b0 /usr/local/ps2dev/ps2sdk/ports/lib/libjpeg.a(jdpostct.o)
 .mdebug        0x00000000001a1968      0x394 /usr/local/ps2dev/ps2sdk/ports/lib/libjpeg.a(jddctmgr.o)
 .mdebug        0x00000000001a1cfc      0x15c /usr/local/ps2dev/ps2sdk/ports/lib/libjpeg.a(jidctfst.o)
 .mdebug        0x00000000001a1e58      0x178 /usr/local/ps2dev/ps2sdk/ports/lib/libjpeg.a(jidctflt.o)
 .mdebug        0x00000000001a1fd0      0x178 /usr/local/ps2dev/ps2sdk/ports/lib/libjpeg.a(jidctint.o)
 .mdebug        0x00000000001a2148      0x274 /usr/local/ps2dev/ps2sdk/ports/lib/libjpeg.a(jidctred.o)
 .mdebug        0x00000000001a23bc      0x644 /usr/local/ps2dev/ps2sdk/ports/lib/libjpeg.a(jdsample.o)
 .mdebug        0x00000000001a2a00      0x554 /usr/local/ps2dev/ps2sdk/ports/lib/libjpeg.a(jdcolor.o)
 .mdebug        0x00000000001a2f54      0xab8 /usr/local/ps2dev/ps2sdk/ports/lib/libjpeg.a(jquant1.o)
 .mdebug        0x00000000001a3a0c      0xa8c /usr/local/ps2dev/ps2sdk/ports/lib/libjpeg.a(jquant2.o)
 .mdebug        0x00000000001a4498      0x500 /usr/local/ps2dev/ps2sdk/ports/lib/libjpeg.a(jdmerge.o)
 .mdebug        0x00000000001a4998      0x2f4 /usr/local/ps2dev/ps2sdk/ports/lib/libjpeg.a(jcomapi.o)
 .mdebug        0x00000000001a4c8c      0x3d8 /usr/local/ps2dev/ps2sdk/ports/lib/libjpeg.a(jutils.o)
 .mdebug        0x00000000001a5064      0x478 /usr/local/ps2dev/ps2sdk/ports/lib/libjpeg.a(jerror.o)
 .mdebug        0x00000000001a54dc      0xa74 /usr/local/ps2dev/ps2sdk/ports/lib/libjpeg.a(jmemmgr.o)
 .mdebug        0x00000000001a5f50      0x534 /usr/local/ps2dev/ps2sdk/ports/lib/libjpeg.a(jmemnobs.o)
 .mdebug        0x00000000001a6484     0x12b4 /usr/local/ps2dev/ps2sdk/ports/lib/libpng.a(png.o)
 .mdebug        0x00000000001a7738     0x1c44 /usr/local/ps2dev/ps2sdk/ports/lib/libpng.a(pngget.o)
 .mdebug        0x00000000001a937c      0xb2c /usr/local/ps2dev/ps2sdk/ports/lib/libpng.a(pngtrans.o)
 .mdebug        0x00000000001a9ea8     0x14a4 /usr/local/ps2dev/ps2sdk/ports/lib/libpng.a(pngread.o)
 .mdebug        0x00000000001ab34c      0x2b0 /usr/local/ps2dev/ps2sdk/ports/lib/libpng.a(pngrio.o)
 .mdebug        0x00000000001ab5fc     0x1698 /usr/local/ps2dev/ps2sdk/ports/lib/libpng.a(pngrtran.o)
 .mdebug        0x00000000001acc94      0x808 /usr/local/ps2dev/ps2sdk/ports/lib/libpng.a(pngmem.o)
 .mdebug        0x00000000001ad49c      0x690 /usr/local/ps2dev/ps2sdk/ports/lib/libpng.a(pngerror.o)
 .mdebug        0x00000000001adb2c     0x194c /usr/local/ps2dev/ps2sdk/ports/lib/libpng.a(pngrutil.o)
 .mdebug        0x00000000001af478     0x1410 /usr/local/ps2dev/ps2sdk/ports/lib/libpng.a(pngset.o)
 .mdebug        0x00000000001b0888      0x474 /usr/local/ps2dev/ps2sdk/ports/lib/libz.a(crc32.o)
 .mdebug        0x00000000001b0cfc      0x914 /usr/local/ps2dev/ps2sdk/ports/lib/libz.a(inflate.o)
 .mdebug        0x00000000001b1610      0x220 /usr/local/ps2dev/ps2sdk/ports/lib/libz.a(inftrees.o)
 .mdebug        0x00000000001b1830      0x36c /usr/local/ps2dev/ps2sdk/ports/lib/libz.a(zutil.o)
 .mdebug        0x00000000001b1b9c      0x1fc /usr/local/ps2dev/ps2sdk/ports/lib/libz.a(adler32.o)
 .mdebug        0x00000000001b1d98      0x150 /usr/local/ps2dev/ps2sdk/ports/lib/libz.a(inffast.o)
 .mdebug        0x00000000001b1ee8      0x474 /usr/local/ps2dev/ps2sdk/ee/lib/libdebug.a(screenshot.o)
 .mdebug        0x00000000001b235c     0x1ef0 /usr/local/ps2dev/ee/lib/gcc-lib/ee/3.2.2/../../../../ee/lib/libm.a(s_ceil.o)
 .mdebug        0x00000000001b424c     0x1f40 /usr/local/ps2dev/ee/lib/gcc-lib/ee/3.2.2/../../../../ee/lib/libm.a(s_floor.o)
 .mdebug        0x00000000001b618c     0x2a48 /usr/local/ps2dev/ee/lib/gcc-lib/ee/3.2.2/../../../../ee/lib/libm.a(w_pow.o)
 .mdebug        0x00000000001b8bd4     0x5d80 /usr/local/ps2dev/ee/lib/gcc-lib/ee/3.2.2/../../../../ee/lib/libm.a(e_pow.o)
 .mdebug        0x00000000001be954     0x2a70 /usr/local/ps2dev/ee/lib/gcc-lib/ee/3.2.2/../../../../ee/lib/libm.a(e_sqrt.o)
 .mdebug        0x00000000001c13c4     0x1798 /usr/local/ps2dev/ee/lib/gcc-lib/ee/3.2.2/../../../../ee/lib/libm.a(s_fabs.o)
 .mdebug        0x00000000001c2b5c     0x1618 /usr/local/ps2dev/ee/lib/gcc-lib/ee/3.2.2/../../../../ee/lib/libm.a(s_finite.o)
 .mdebug        0x00000000001c4174     0x13ac /usr/local/ps2dev/ee/lib/gcc-lib/ee/3.2.2/../../../../ee/lib/libm.a(s_infconst.o)
 .mdebug        0x00000000001c5520     0x16e0 /usr/local/ps2dev/ee/lib/gcc-lib/ee/3.2.2/../../../../ee/lib/libm.a(s_isnan.o)
 .mdebug        0x00000000001c6c00     0x13b0 /usr/local/ps2dev/ee/lib/gcc-lib/ee/3.2.2/../../../../ee/lib/libm.a(s_lib_ver.o)
 .mdebug        0x00000000001c7fb0     0x15b8 /usr/local/ps2dev/ee/lib/gcc-lib/ee/3.2.2/../../../../ee/lib/libm.a(s_matherr.o)
 .mdebug        0x00000000001c9568     0x2740 /usr/local/ps2dev/ee/lib/gcc-lib/ee/3.2.2/../../../../ee/lib/libm.a(s_rint.o)
 .mdebug        0x00000000001cbca8     0x20dc /usr/local/ps2dev/ee/lib/gcc-lib/ee/3.2.2/../../../../ee/lib/libm.a(s_scalbn.o)
 .mdebug        0x00000000001cdd84     0x17a0 /usr/local/ps2dev/ee/lib/gcc-lib/ee/3.2.2/../../../../ee/lib/libm.a(s_copysign.o)
 .mdebug        0x00000000001cf524      0xf94 /usr/local/ps2dev/ps2sdk/ee/lib/libmc.a(libmc.o)
 .mdebug        0x00000000001d04b8     0x84f4 /usr/local/ps2dev/ps2sdk/ports/lib/libfreetype.a(ftinit.o)
 .mdebug        0x00000000001d89ac    0x4cdc4 /usr/local/ps2dev/ps2sdk/ports/lib/libfreetype.a(ftbase.o)
 .mdebug        0x0000000000225770    0x2ad8c /usr/local/ps2dev/ps2sdk/ports/lib/libfreetype.a(autohint.o)
 .mdebug        0x00000000002504fc    0x24a1c /usr/local/ps2dev/ps2sdk/ports/lib/libfreetype.a(bdf.o)
 .mdebug        0x0000000000274f18    0x4104c /usr/local/ps2dev/ps2sdk/ports/lib/libfreetype.a(cff.o)
 .mdebug        0x00000000002b5f64    0x1bfec /usr/local/ps2dev/ps2sdk/ports/lib/libfreetype.a(type1cid.o)
 .mdebug        0x00000000002d1f50    0x17cdc /usr/local/ps2dev/ps2sdk/ports/lib/libfreetype.a(pcf.o)
 .mdebug        0x00000000002e9c2c    0x28128 /usr/local/ps2dev/ps2sdk/ports/lib/libfreetype.a(pfr.o)
 .mdebug        0x0000000000311d54    0x264b0 /usr/local/ps2dev/ps2sdk/ports/lib/libfreetype.a(psaux.o)
 .mdebug        0x0000000000338204    0x2dc94 /usr/local/ps2dev/ps2sdk/ports/lib/libfreetype.a(pshinter.o)
 .mdebug        0x0000000000365e98    0x39b7c /usr/local/ps2dev/ps2sdk/ports/lib/libfreetype.a(psnames.o)
 .mdebug        0x000000000039fa14    0x1edf8 /usr/local/ps2dev/ps2sdk/ports/lib/libfreetype.a(raster.o)
 .mdebug        0x00000000003be80c    0x3e354 /usr/local/ps2dev/ps2sdk/ports/lib/libfreetype.a(sfnt.o)
 .mdebug        0x00000000003fcb60    0x1ad3c /usr/local/ps2dev/ps2sdk/ports/lib/libfreetype.a(smooth.o)
 .mdebug        0x000000000041789c    0x2efa4 /usr/local/ps2dev/ps2sdk/ports/lib/libfreetype.a(truetype.o)
 .mdebug        0x0000000000446840    0x2ef30 /usr/local/ps2dev/ps2sdk/ports/lib/libfreetype.a(type1.o)
 .mdebug        0x0000000000475770    0x1c2c0 /usr/local/ps2dev/ps2sdk/ports/lib/libfreetype.a(type42.o)
 .mdebug        0x0000000000491a30     0xee38 /usr/local/ps2dev/ps2sdk/ports/lib/libfreetype.a(winfnt.o)
 .mdebug        0x00000000004a0868     0x6c38 /usr/local/ps2dev/ps2sdk/ports/lib/libfreetype.a(ftsystem.o)
 .mdebug        0x00000000004a74a0     0xd518 /usr/local/ps2dev/ps2sdk/ports/lib/libfreetype.a(ftglyph.o)
 .mdebug        0x00000000004b49b8    0x1bcb8 /usr/local/ps2dev/ps2sdk/ports/lib/libfreetype.a(ftgzip.o)
 .mdebug        0x00000000004d0670    0x10124 /usr/local/ps2dev/ps2sdk/ports/lib/libfreetype.a(ftlzw.o)
 .mdebug        0x00000000004e0794      0x6f0 /usr/local/ps2dev/ps2sdk/ee/lib/libvux.a(vuhw.o)
 .mdebug        0x00000000004e0e84      0x380 /usr/local/ps2dev/ps2sdk/ee/lib/libcdvd.a(cdInit.o)
 .mdebug        0x00000000004e1204      0x2ec /usr/local/ps2dev/ps2sdk/ee/lib/libcdvd.a(cdDiskReady.o)
 .mdebug        0x00000000004e14f0      0x1d8 /usr/local/ps2dev/ps2sdk/ee/lib/libcdvd.a(cdSemaInit.o)
 .mdebug        0x00000000004e16c8      0x21c /usr/local/ps2dev/ps2sdk/ee/lib/libcdvd.a(cdSemaExit.o)
 .mdebug        0x00000000004e18e4      0x2a8 /usr/local/ps2dev/ps2sdk/ee/lib/libcdvd.a(_ncmd_internals.o)
 .mdebug        0x00000000004e1b8c      0x244 /usr/local/ps2dev/ps2sdk/ee/lib/libcdvd.a(cdStandby.o)
 .mdebug        0x00000000004e1dd0      0x23c /usr/local/ps2dev/ps2sdk/ee/lib/libcdvd.a(cdStop.o)
 .mdebug        0x00000000004e200c      0x1fc /usr/local/ps2dev/ps2sdk/ee/lib/libcdvd.a(cdNCmdDiskReady.o)
 .mdebug        0x00000000004e2208      0x1c4 /usr/local/ps2dev/ps2sdk/ee/lib/libcdvd.a(cdSync.o)
 .mdebug        0x00000000004e23cc      0x2f0 /usr/local/ps2dev/ps2sdk/ee/lib/libcdvd.a(cdCheckNCmd.o)
 .mdebug        0x00000000004e26bc      0x174 /usr/local/ps2dev/ps2sdk/ee/lib/libcdvd.a(_scmd_internals.o)
 .mdebug        0x00000000004e2830      0x220 /usr/local/ps2dev/ps2sdk/ee/lib/libcdvd.a(cdReadClock.o)
 .mdebug        0x00000000004e2a50      0x1f8 /usr/local/ps2dev/ps2sdk/ee/lib/libcdvd.a(cdGetDiscType.o)
 .mdebug        0x00000000004e2c48      0x21c /usr/local/ps2dev/ps2sdk/ee/lib/libcdvd.a(cdStatus.o)
 .mdebug        0x00000000004e2e64      0x2f0 /usr/local/ps2dev/ps2sdk/ee/lib/libcdvd.a(cdCheckSCmd.o)
 .mdebug        0x00000000004e3154      0x1ac /usr/local/ps2dev/ps2sdk/ee/lib/libcdvd.a(cdSyncS.o)
 .mdebug        0x00000000004e3300      0x328 /usr/local/ps2dev/ps2sdk/ee/lib/libcdvd.a(_libcdvd_internals.o)
 .mdebug        0x00000000004e3628      0x21c /usr/local/ps2dev/ps2sdk/ee/lib/libcdvd.a(cdCallback.o)
 .mdebug        0x00000000004e3844      0x324 /usr/local/ps2dev/ps2sdk/ee/lib/libc.a(memcpy.o)
 .mdebug        0x00000000004e3b68      0x320 /usr/local/ps2dev/ps2sdk/ee/lib/libc.a(memset.o)
 .mdebug        0x00000000004e3e88      0x350 /usr/local/ps2dev/ps2sdk/ee/lib/libc.a(strcat.o)
 .mdebug        0x00000000004e41d8      0x360 /usr/local/ps2dev/ps2sdk/ee/lib/libc.a(strncmp.o)
 .mdebug        0x00000000004e4538      0x31c /usr/local/ps2dev/ps2sdk/ee/lib/libc.a(memcmp.o)
 .mdebug        0x00000000004e4854      0x340 /usr/local/ps2dev/ps2sdk/ee/lib/libc.a(memmove.o)
 .mdebug        0x00000000004e4b94      0x334 /usr/local/ps2dev/ps2sdk/ee/lib/libc.a(strcpy.o)
 .mdebug        0x00000000004e4ec8      0x358 /usr/local/ps2dev/ps2sdk/ee/lib/libc.a(strncpy.o)
 .mdebug        0x00000000004e5220      0x1e0 /usr/local/ps2dev/ps2sdk/ee/lib/libc.a(terminate.o)
 .mdebug        0x00000000004e5400      0x334 /usr/local/ps2dev/ps2sdk/ee/lib/libc.a(strlen.o)
 .mdebug        0x00000000004e5734      0x34c /usr/local/ps2dev/ps2sdk/ee/lib/libc.a(strchr.o)
 .mdebug        0x00000000004e5a80      0x344 /usr/local/ps2dev/ps2sdk/ee/lib/libc.a(strcmp.o)
 .mdebug        0x00000000004e5dc4      0x4f8 /usr/local/ps2dev/ps2sdk/ee/lib/libc.a(setjmp.o)
 .mdebug        0x00000000004e62bc      0x144 /usr/local/ps2dev/ps2sdk/ee/lib/libc.a(qsort.o)
 .mdebug        0x00000000004e6400      0x17c /usr/local/ps2dev/ps2sdk/ee/lib/libc.a(snprintf.o)
 .mdebug        0x00000000004e657c      0x178 /usr/local/ps2dev/ps2sdk/ee/lib/libc.a(sprintf.o)
 .mdebug        0x00000000004e66f4      0x178 /usr/local/ps2dev/ps2sdk/ee/lib/libc.a(fprintf.o)
 .mdebug        0x00000000004e686c      0x160 /usr/local/ps2dev/ps2sdk/ee/lib/libc.a(printf.o)
 .mdebug        0x00000000004e69cc      0x1a8 /usr/local/ps2dev/ps2sdk/ee/lib/libc.a(vprintf.o)
 .mdebug        0x00000000004e6b74      0x194 /usr/local/ps2dev/ps2sdk/ee/lib/libc.a(sscanf.o)
 .mdebug        0x00000000004e6d08      0x2e4 /usr/local/ps2dev/ps2sdk/ee/lib/libc.a(_xscanf_internals.o)
 .mdebug        0x00000000004e6fec      0x28c /usr/local/ps2dev/ps2sdk/ee/lib/libc.a(malloc.o)
 .mdebug        0x00000000004e7278      0x1ec /usr/local/ps2dev/ps2sdk/ee/lib/libc.a(realloc.o)
 .mdebug        0x00000000004e7464      0x174 /usr/local/ps2dev/ps2sdk/ee/lib/libc.a(calloc.o)
 .mdebug        0x00000000004e75d8      0x1ec /usr/local/ps2dev/ps2sdk/ee/lib/libc.a(memalign.o)
 .mdebug        0x00000000004e77c4      0x1e8 /usr/local/ps2dev/ps2sdk/ee/lib/libc.a(free.o)
 .mdebug        0x00000000004e79ac      0x3a0 /usr/local/ps2dev/ps2sdk/ee/lib/libc.a(__alloc_internals.o)
 .mdebug        0x00000000004e7d4c      0x168 /usr/local/ps2dev/ps2sdk/ee/lib/libc.a(strcasecmp.o)
 .mdebug        0x00000000004e7eb4      0x160 /usr/local/ps2dev/ps2sdk/ee/lib/libc.a(strrchr.o)
 .mdebug        0x00000000004e8014      0x178 /usr/local/ps2dev/ps2sdk/ee/lib/libc.a(strstr.o)
 .mdebug        0x00000000004e818c      0x160 /usr/local/ps2dev/ps2sdk/ee/lib/libc.a(tolower.o)
 .mdebug        0x00000000004e82ec      0x148 /usr/local/ps2dev/ps2sdk/ee/lib/libc.a(isupper.o)
 .mdebug        0x00000000004e8434      0x148 /usr/local/ps2dev/ps2sdk/ee/lib/libc.a(isdigit.o)
 .mdebug        0x00000000004e857c      0x178 /usr/local/ps2dev/ps2sdk/ee/lib/libc.a(isalnum.o)
 .mdebug        0x00000000004e86f4      0x160 /usr/local/ps2dev/ps2sdk/ee/lib/libc.a(isprint.o)
 .mdebug        0x00000000004e8854      0x164 /usr/local/ps2dev/ps2sdk/ee/lib/libc.a(isxdigit.o)
 .mdebug        0x00000000004e89b8      0x178 /usr/local/ps2dev/ps2sdk/ee/lib/libc.a(fclose.o)
 .mdebug        0x00000000004e8b30      0x170 /usr/local/ps2dev/ps2sdk/ee/lib/libc.a(fgetc.o)
 .mdebug        0x00000000004e8ca0      0x340 /usr/local/ps2dev/ps2sdk/ee/lib/libc.a(fopen.o)
 .mdebug        0x00000000004e8fe0      0x15c /usr/local/ps2dev/ps2sdk/ee/lib/libc.a(fputc.o)
 .mdebug        0x00000000004e913c      0x178 /usr/local/ps2dev/ps2sdk/ee/lib/libc.a(fread.o)
 .mdebug        0x00000000004e92b4      0x178 /usr/local/ps2dev/ps2sdk/ee/lib/libc.a(fseek.o)
 .mdebug        0x00000000004e942c      0x190 /usr/local/ps2dev/ps2sdk/ee/lib/libc.a(ftell.o)
 .mdebug        0x00000000004e95bc      0x1c0 /usr/local/ps2dev/ps2sdk/ee/lib/libc.a(fwrite.o)
 .mdebug        0x00000000004e977c      0x1cc /usr/local/ps2dev/ps2sdk/ee/lib/libc.a(getfdtype.o)
 .mdebug        0x00000000004e9948      0x158 /usr/local/ps2dev/ps2sdk/ee/lib/libc.a(putc.o)
 .mdebug        0x00000000004e9aa0      0x15c /usr/local/ps2dev/ps2sdk/ee/lib/libc.a(puts.o)
 .mdebug        0x00000000004e9bfc      0x130 /usr/local/ps2dev/ps2sdk/ee/lib/libc.a(stdio.o)
 .mdebug        0x00000000004e9d2c      0x144 /usr/local/ps2dev/ps2sdk/ee/lib/libc.a(ungetc.o)
 .mdebug        0x00000000004e9e70      0x4bc /usr/local/ps2dev/ps2sdk/ee/lib/libc.a(__stdio_internals.o)
 .mdebug        0x00000000004ea32c      0x17c /usr/local/ps2dev/ps2sdk/ee/lib/libc.a(getenv.o)
 .mdebug        0x00000000004ea4a8      0x180 /usr/local/ps2dev/ps2sdk/ee/lib/libc.a(rand.o)
 .mdebug        0x00000000004ea628      0x1bc /usr/local/ps2dev/ps2sdk/ee/lib/libc.a(strtod.o)
 .mdebug        0x00000000004ea7e4      0x20c /usr/local/ps2dev/ps2sdk/ee/lib/libc.a(strtol.o)
 .mdebug        0x00000000004ea9f0      0x180 /usr/local/ps2dev/ps2sdk/ee/lib/libc.a(__assert_fail.o)
 .mdebug        0x00000000004eab70      0x298 /usr/local/ps2dev/ps2sdk/ee/lib/libc.a(__stdlib_internals.o)
 .mdebug        0x00000000004eae08      0x278 /usr/local/ps2dev/ps2sdk/ee/lib/libc.a(sleep.o)
 .mdebug        0x00000000004eb080      0x43c /usr/local/ps2dev/ps2sdk/ee/lib/libc.a(clock.o)
 .mdebug        0x00000000004eb4bc      0x308 /usr/local/ps2dev/ps2sdk/ee/lib/libc.a(init_libc.o)
 .mdebug        0x00000000004eb7c4      0x174 /usr/local/ps2dev/ps2sdk/ee/lib/libc.a(init_args.o)
 .mdebug        0x00000000004eb938      0x1ac /usr/local/ps2dev/ps2sdk/ee/lib/libc.a(sbrk.o)
 .mdebug        0x00000000004ebae4      0x31c /usr/local/ps2dev/ps2sdk/ee/lib/libc.a(vxprintf.o)
 .mdebug        0x00000000004ebe00      0x148 /usr/local/ps2dev/ps2sdk/ee/lib/libc.a(__sout.o)
 .mdebug        0x00000000004ebf48      0x180 /usr/local/ps2dev/ps2sdk/ee/lib/libc.a(vsnprintf.o)
 .mdebug        0x00000000004ec0c8      0x160 /usr/local/ps2dev/ps2sdk/ee/lib/libc.a(__fout.o)
 .mdebug        0x00000000004ec228      0x164 /usr/local/ps2dev/ps2sdk/ee/lib/libc.a(putchar.o)
 .mdebug        0x00000000004ec38c      0x21c /usr/local/ps2dev/ps2sdk/ee/lib/libc.a(vxscanf.o)
 .mdebug        0x00000000004ec5a8      0x178 /usr/local/ps2dev/ps2sdk/ee/lib/libc.a(isalpha.o)
 .mdebug        0x00000000004ec720      0x148 /usr/local/ps2dev/ps2sdk/ee/lib/libc.a(iscntrl.o)
 .mdebug        0x00000000004ec868      0x148 /usr/local/ps2dev/ps2sdk/ee/lib/libc.a(isspace.o)
 .mdebug        0x00000000004ec9b0      0x178 /usr/local/ps2dev/ps2sdk/ee/lib/libc.a(fcloseall.o)
 .mdebug        0x00000000004ecb28      0x178 /usr/local/ps2dev/ps2sdk/ee/lib/libc.a(chdir.o)
 .mdebug        0x00000000004ecca0      0x148 /usr/local/ps2dev/ps2sdk/ee/lib/libc.a(islower.o)
 .mdebug        0x00000000004ecde8      0x454 /usr/local/ps2dev/ps2sdk/ee/lib/libkernel.a(SetGsCrt.o)
 .mdebug        0x00000000004ed23c      0x44c /usr/local/ps2dev/ps2sdk/ee/lib/libkernel.a(Exit.o)
 .mdebug        0x00000000004ed688      0x454 /usr/local/ps2dev/ps2sdk/ee/lib/libkernel.a(ExecPS2.o)
 .mdebug        0x00000000004edadc      0x464 /usr/local/ps2dev/ps2sdk/ee/lib/libkernel.a(SetVCommonHandler.o)
 .mdebug        0x00000000004edf40      0x460 /usr/local/ps2dev/ps2sdk/ee/lib/libkernel.a(AddIntcHandler.o)
 .mdebug        0x00000000004ee3a0      0x464 /usr/local/ps2dev/ps2sdk/ee/lib/libkernel.a(RemoveIntcHandler.o)
 .mdebug        0x00000000004ee804      0x454 /usr/local/ps2dev/ps2sdk/ee/lib/libkernel.a(SetAlarm.o)
 .mdebug        0x00000000004eec58      0x45c /usr/local/ps2dev/ps2sdk/ee/lib/libkernel.a(ReleaseAlarm.o)
 .mdebug        0x00000000004ef0b4      0x454 /usr/local/ps2dev/ps2sdk/ee/lib/libkernel.a(iSetAlarm.o)
 .mdebug        0x00000000004ef508      0x45c /usr/local/ps2dev/ps2sdk/ee/lib/libkernel.a(CreateThread.o)
 .mdebug        0x00000000004ef964      0x45c /usr/local/ps2dev/ps2sdk/ee/lib/libkernel.a(DeleteThread.o)
 .mdebug        0x00000000004efdc0      0x45c /usr/local/ps2dev/ps2sdk/ee/lib/libkernel.a(StartThread.o)
 .mdebug        0x00000000004f021c      0x464 /usr/local/ps2dev/ps2sdk/ee/lib/libkernel.a(ExitDeleteThread.o)
 .mdebug        0x00000000004f0680      0x464 /usr/local/ps2dev/ps2sdk/ee/lib/libkernel.a(TerminateThread.o)
 .mdebug        0x00000000004f0ae4      0x46c /usr/local/ps2dev/ps2sdk/ee/lib/libkernel.a(ChangeThreadPriority.o)
 .mdebug        0x00000000004f0f50      0x474 /usr/local/ps2dev/ps2sdk/ee/lib/libkernel.a(iRotateThreadReadyQueue.o)
 .mdebug        0x00000000004f13c4      0x45c /usr/local/ps2dev/ps2sdk/ee/lib/libkernel.a(GetThreadId.o)
 .mdebug        0x00000000004f1820      0x464 /usr/local/ps2dev/ps2sdk/ee/lib/libkernel.a(ReferThreadStatus.o)
 .mdebug        0x00000000004f1c84      0x45c /usr/local/ps2dev/ps2sdk/ee/lib/libkernel.a(SleepThread.o)
 .mdebug        0x00000000004f20e0      0x45c /usr/local/ps2dev/ps2sdk/ee/lib/libkernel.a(WakeupThread.o)
 .mdebug        0x00000000004f253c      0x45c /usr/local/ps2dev/ps2sdk/ee/lib/libkernel.a(iWakeupThread.o)
 .mdebug        0x00000000004f2998      0x454 /usr/local/ps2dev/ps2sdk/ee/lib/libkernel.a(EndOfHeap.o)
 .mdebug        0x00000000004f2dec      0x458 /usr/local/ps2dev/ps2sdk/ee/lib/libkernel.a(CreateSema.o)
 .mdebug        0x00000000004f3244      0x458 /usr/local/ps2dev/ps2sdk/ee/lib/libkernel.a(DeleteSema.o)
 .mdebug        0x00000000004f369c      0x45c /usr/local/ps2dev/ps2sdk/ee/lib/libkernel.a(iSignalSema.o)
 .mdebug        0x00000000004f3af8      0x458 /usr/local/ps2dev/ps2sdk/ee/lib/libkernel.a(SignalSema.o)
 .mdebug        0x00000000004f3f50      0x454 /usr/local/ps2dev/ps2sdk/ee/lib/libkernel.a(WaitSema.o)
 .mdebug        0x00000000004f43a4      0x454 /usr/local/ps2dev/ps2sdk/ee/lib/libkernel.a(PollSema.o)
 .mdebug        0x00000000004f47f8      0x458 /usr/local/ps2dev/ps2sdk/ee/lib/libkernel.a(FlushCache.o)
 .mdebug        0x00000000004f4c50      0x454 /usr/local/ps2dev/ps2sdk/ee/lib/libkernel.a(GsGetIMR.o)
 .mdebug        0x00000000004f50a4      0x454 /usr/local/ps2dev/ps2sdk/ee/lib/libkernel.a(GsPutIMR.o)
 .mdebug        0x00000000004f54f8      0x52c /usr/local/ps2dev/ps2sdk/ee/lib/libkernel.a(SifWriteBackDCache.o)
 .mdebug        0x00000000004f5a24      0x468 /usr/local/ps2dev/ps2sdk/ee/lib/libkernel.a(__errno.o)
 .mdebug        0x00000000004f5e8c      0x3f0 /usr/local/ps2dev/ps2sdk/ee/lib/libkernel.a(errno.o)
 .mdebug        0x00000000004f627c      0x178 /usr/local/ps2dev/ps2sdk/ee/lib/libkernel.a(sif_cmd_addhandler.o)
 .mdebug        0x00000000004f63f4      0x1f8 /usr/local/ps2dev/ps2sdk/ee/lib/libkernel.a(SifBindRpc.o)
 .mdebug        0x00000000004f65ec      0x21c /usr/local/ps2dev/ps2sdk/ee/lib/libkernel.a(SifCallRpc.o)
 .mdebug        0x00000000004f6808      0x764 /usr/local/ps2dev/ps2sdk/ee/lib/libkernel.a(SifRpcMain.o)
 .mdebug        0x00000000004f6f6c      0x184 /usr/local/ps2dev/ps2sdk/ee/lib/libkernel.a(_rpc_get_packet.o)
 .mdebug        0x00000000004f70f0      0x15c /usr/local/ps2dev/ps2sdk/ee/lib/libkernel.a(_rpc_get_fpacket.o)
 .mdebug        0x00000000004f724c      0x158 /usr/local/ps2dev/ps2sdk/ee/lib/libkernel.a(SifCheckStatRpc.o)
 .mdebug        0x00000000004f73a4      0x194 /usr/local/ps2dev/ps2sdk/ee/lib/libkernel.a(fio_exit.o)
 .mdebug        0x00000000004f7538      0x244 /usr/local/ps2dev/ps2sdk/ee/lib/libkernel.a(fio_open.o)
 .mdebug        0x00000000004f777c      0x1ec /usr/local/ps2dev/ps2sdk/ee/lib/libkernel.a(fio_close.o)
 .mdebug        0x00000000004f7968      0x274 /usr/local/ps2dev/ps2sdk/ee/lib/libkernel.a(fio_read.o)
 .mdebug        0x00000000004f7bdc      0x268 /usr/local/ps2dev/ps2sdk/ee/lib/libkernel.a(fio_write.o)
 .mdebug        0x00000000004f7e44      0x1ec /usr/local/ps2dev/ps2sdk/ee/lib/libkernel.a(fio_lseek.o)
 .mdebug        0x00000000004f8030      0x204 /usr/local/ps2dev/ps2sdk/ee/lib/libkernel.a(fio_mkdir.o)
 .mdebug        0x00000000004f8234      0x1b0 /usr/local/ps2dev/ps2sdk/ee/lib/libkernel.a(_fio_read_intr.o)
 .mdebug        0x00000000004f83e4      0x1ec /usr/local/ps2dev/ps2sdk/ee/lib/libkernel.a(fio_ioctl.o)
 .mdebug        0x00000000004f85d0      0x204 /usr/local/ps2dev/ps2sdk/ee/lib/libkernel.a(fio_dopen.o)
 .mdebug        0x00000000004f87d4      0x1f0 /usr/local/ps2dev/ps2sdk/ee/lib/libkernel.a(fio_dclose.o)
 .mdebug        0x00000000004f89c4      0x210 /usr/local/ps2dev/ps2sdk/ee/lib/libkernel.a(fio_dread.o)
 .mdebug        0x00000000004f8bd4      0x230 /usr/local/ps2dev/ps2sdk/ee/lib/libkernel.a(fio_getstat.o)
 .mdebug        0x00000000004f8e04      0x208 /usr/local/ps2dev/ps2sdk/ee/lib/libkernel.a(fio_remove.o)
 .mdebug        0x00000000004f900c      0x204 /usr/local/ps2dev/ps2sdk/ee/lib/libkernel.a(fio_rmdir.o)
 .mdebug        0x00000000004f9210      0x22c /usr/local/ps2dev/ps2sdk/ee/lib/libkernel.a(SifLoadFileInit.o)
 .mdebug        0x00000000004f943c      0x1a0 /usr/local/ps2dev/ps2sdk/ee/lib/libkernel.a(SifLoadFileExit.o)
 .mdebug        0x00000000004f95dc      0x178 /usr/local/ps2dev/ps2sdk/ee/lib/libkernel.a(SifLoadModule.o)
 .mdebug        0x00000000004f9754      0x21c /usr/local/ps2dev/ps2sdk/ee/lib/libkernel.a(SifExecModuleBuffer.o)
 .mdebug        0x00000000004f9970      0x22c /usr/local/ps2dev/ps2sdk/ee/lib/libkernel.a(SifInitIopHeap.o)
 .mdebug        0x00000000004f9b9c      0x170 /usr/local/ps2dev/ps2sdk/ee/lib/libkernel.a(SifExitIopHeap.o)
 .mdebug        0x00000000004f9d0c      0x1ac /usr/local/ps2dev/ps2sdk/ee/lib/libkernel.a(SifAllocIopHeap.o)
 .mdebug        0x00000000004f9eb8      0x1a8 /usr/local/ps2dev/ps2sdk/ee/lib/libkernel.a(SifFreeIopHeap.o)
 .mdebug        0x00000000004fa060      0x248 /usr/local/ps2dev/ps2sdk/ee/lib/libkernel.a(SifIopReset.o)
 .mdebug        0x00000000004fa2a8      0x170 /usr/local/ps2dev/ps2sdk/ee/lib/libkernel.a(SifIopSync.o)
 .mdebug        0x00000000004fa418       0xfc /usr/local/ps2dev/ps2sdk/ee/lib/libkernel.a(__iop_control_internals.o)
 .mdebug        0x00000000004fa514      0x1b4 /usr/local/ps2dev/ps2sdk/ee/lib/libkernel.a(GetRomName.o)
 .mdebug        0x00000000004fa6c8      0x1bc /usr/local/ps2dev/ps2sdk/ee/lib/libkernel.a(configGetTvScreenType.o)
 .mdebug        0x00000000004fa884      0x144 /usr/local/ps2dev/ps2sdk/ee/lib/libkernel.a(DIntr.o)
 .mdebug        0x00000000004fa9c8      0x144 /usr/local/ps2dev/ps2sdk/ee/lib/libkernel.a(EIntr.o)
 .mdebug        0x00000000004fab0c      0x194 /usr/local/ps2dev/ps2sdk/ee/lib/libkernel.a(EnableIntc.o)
 .mdebug        0x00000000004faca0      0x198 /usr/local/ps2dev/ps2sdk/ee/lib/libkernel.a(DisableIntc.o)
 .mdebug        0x00000000004fae38      0x194 /usr/local/ps2dev/ps2sdk/ee/lib/libkernel.a(SyncDCache.o)
 .mdebug        0x00000000004fafcc      0x188 /usr/local/ps2dev/ps2sdk/ee/lib/libkernel.a(sio_putc.o)
 .mdebug        0x00000000004fb154      0x14c /usr/local/ps2dev/ps2sdk/ee/lib/libkernel.a(cpu_ticks.o)
 .mdebug        0x00000000004fb2a0      0x45c /usr/local/ps2dev/ps2sdk/ee/lib/libkernel.a(_EnableIntc.o)
 .mdebug        0x00000000004fb6fc      0x45c /usr/local/ps2dev/ps2sdk/ee/lib/libkernel.a(_DisableIntc.o)
 .mdebug        0x00000000004fbb58      0x464 /usr/local/ps2dev/ps2sdk/ee/lib/libkernel.a(GetOsdConfigParam.o)
 .mdebug        0x00000000004fbfbc      0x458 /usr/local/ps2dev/ps2sdk/ee/lib/libkernel.a(SifStopDma.o)
 .mdebug        0x00000000004fc414      0x458 /usr/local/ps2dev/ps2sdk/ee/lib/libkernel.a(SifDmaStat.o)
 .mdebug        0x00000000004fc86c      0x454 /usr/local/ps2dev/ps2sdk/ee/lib/libkernel.a(SifSetDma.o)
 .mdebug        0x00000000004fccc0      0x454 /usr/local/ps2dev/ps2sdk/ee/lib/libkernel.a(SifSetReg.o)
 .mdebug        0x00000000004fd114      0x454 /usr/local/ps2dev/ps2sdk/ee/lib/libkernel.a(SifGetReg.o)
 .mdebug        0x00000000004fd568      0x484 /usr/local/ps2dev/ps2sdk/ee/lib/libkernel.a(_SyncDCache.o)
 .mdebug        0x00000000004fd9ec      0x2c0 /usr/local/ps2dev/ps2sdk/ee/lib/libkernel.a(sif_cmd_send.o)
 .mdebug        0x00000000004fdcac      0x5c4 /usr/local/ps2dev/ps2sdk/ee/lib/libkernel.a(sif_cmd_main.o)
 .mdebug        0x00000000004fe270      0x170 /usr/local/ps2dev/ps2sdk/ee/lib/libkernel.a(sif_sreg_get.o)
 .mdebug        0x00000000004fe3e0      0x18c /usr/local/ps2dev/ps2sdk/ee/lib/libkernel.a(__fio_internals.o)
 .mdebug        0x00000000004fe56c      0x298 /usr/local/ps2dev/ps2sdk/ee/lib/libkernel.a(fio_init.o)
 .mdebug        0x00000000004fe804      0x18c /usr/local/ps2dev/ps2sdk/ee/lib/libkernel.a(_fio_intr.o)
 .mdebug        0x00000000004fe990      0x1f0 /usr/local/ps2dev/ps2sdk/ee/lib/libkernel.a(_SifLoadModule.o)
 .mdebug        0x00000000004feb80      0x1e8 /usr/local/ps2dev/ps2sdk/ee/lib/libkernel.a(_SifLoadModuleBuffer.o)
 .mdebug        0x00000000004fed68      0x110 /usr/local/ps2dev/ps2sdk/ee/lib/libkernel.a(_config_internals.o)
 .mdebug        0x00000000004fee78      0x180 /usr/local/ps2dev/ps2sdk/ee/lib/libkernel.a(IsT10K.o)
 .mdebug        0x00000000004feff8      0x194 /usr/local/ps2dev/ps2sdk/ee/lib/libkernel.a(EnableDmac.o)
 .mdebug        0x00000000004ff18c      0x198 /usr/local/ps2dev/ps2sdk/ee/lib/libkernel.a(DisableDmac.o)
 .mdebug        0x00000000004ff324      0x460 /usr/local/ps2dev/ps2sdk/ee/lib/libkernel.a(AddDmacHandler.o)
 .mdebug        0x00000000004ff784      0x464 /usr/local/ps2dev/ps2sdk/ee/lib/libkernel.a(RemoveDmacHandler.o)
 .mdebug        0x00000000004ffbe8      0x45c /usr/local/ps2dev/ps2sdk/ee/lib/libkernel.a(_EnableDmac.o)
 .mdebug        0x0000000000500044      0x45c /usr/local/ps2dev/ps2sdk/ee/lib/libkernel.a(_DisableDmac.o)
 .mdebug        0x00000000005004a0      0x458 /usr/local/ps2dev/ps2sdk/ee/lib/libkernel.a(iSifSetDma.o)
 .mdebug        0x00000000005008f8      0x45c /usr/local/ps2dev/ps2sdk/ee/lib/libkernel.a(SifSetDChain.o)
 .mdebug        0x0000000000500d54      0x1ac /usr/local/ps2dev/ps2sdk/ee/lib/libkernel.a(_sif_cmd_int_handler.o)
 .mdebug        0x0000000000500f00      0x45c /usr/local/ps2dev/ps2sdk/ee/lib/libkernel.a(iSifSetDChain.o)
 .mdebug        0x000000000050135c     0x1ed4 /usr/local/ps2dev/ee/lib/gcc-lib/ee/3.2.2/libgcc.a(_muldi3.o)
 .mdebug        0x0000000000503230     0x1dcc /usr/local/ps2dev/ee/lib/gcc-lib/ee/3.2.2/libgcc.a(_floatdidf.o)
 .mdebug        0x0000000000504ffc     0x2048 /usr/local/ps2dev/ee/lib/gcc-lib/ee/3.2.2/libgcc.a(_floatdisf.o)
 .mdebug        0x0000000000507044     0x1f8c /usr/local/ps2dev/ee/lib/gcc-lib/ee/3.2.2/libgcc.a(_fixunsdfdi.o)
 .mdebug        0x0000000000508fd0     0x1d78 /usr/local/ps2dev/ee/lib/gcc-lib/ee/3.2.2/libgcc.a(_fixdfdi.o)
 .mdebug        0x000000000050ad48     0x1d44 /usr/local/ps2dev/ee/lib/gcc-lib/ee/3.2.2/libgcc.a(_fixsfdi.o)
 .mdebug        0x000000000050ca8c     0x4398 /usr/local/ps2dev/ee/lib/gcc-lib/ee/3.2.2/libgcc.a(_divdi3.o)
 .mdebug        0x0000000000510e24     0x43c4 /usr/local/ps2dev/ee/lib/gcc-lib/ee/3.2.2/libgcc.a(_moddi3.o)
 .mdebug        0x00000000005151e8     0x3c7c /usr/local/ps2dev/ee/lib/gcc-lib/ee/3.2.2/libgcc.a(_udivdi3.o)
 .mdebug        0x0000000000518e64     0x3cd4 /usr/local/ps2dev/ee/lib/gcc-lib/ee/3.2.2/libgcc.a(_umoddi3.o)
 .mdebug        0x000000000051cb38     0x1e38 /usr/local/ps2dev/ee/lib/gcc-lib/ee/3.2.2/libgcc.a(_sf_to_df.o)
 .mdebug        0x000000000051e970     0x35f0 /usr/local/ps2dev/ee/lib/gcc-lib/ee/3.2.2/libgcc.a(_addsub_df.o)
 .mdebug        0x0000000000521f60     0x3ccc /usr/local/ps2dev/ee/lib/gcc-lib/ee/3.2.2/libgcc.a(_mul_df.o)
 .mdebug        0x0000000000525c2c     0x2d2c /usr/local/ps2dev/ee/lib/gcc-lib/ee/3.2.2/libgcc.a(_div_df.o)
 .mdebug        0x0000000000528958     0x1f0c /usr/local/ps2dev/ee/lib/gcc-lib/ee/3.2.2/libgcc.a(_compare_df.o)
 .mdebug        0x000000000052a864     0x2118 /usr/local/ps2dev/ee/lib/gcc-lib/ee/3.2.2/libgcc.a(_si_to_df.o)
 .mdebug        0x000000000052c97c     0x22dc /usr/local/ps2dev/ee/lib/gcc-lib/ee/3.2.2/libgcc.a(_df_to_si.o)
 .mdebug        0x000000000052ec58     0x1e94 /usr/local/ps2dev/ee/lib/gcc-lib/ee/3.2.2/libgcc.a(_make_df.o)
 .mdebug        0x0000000000530aec     0x1fd0 /usr/local/ps2dev/ee/lib/gcc-lib/ee/3.2.2/libgcc.a(_df_to_sf.o)
 .mdebug        0x0000000000532abc     0x1be0 /usr/local/ps2dev/ee/lib/gcc-lib/ee/3.2.2/libgcc.a(_thenan_df.o)
 .mdebug        0x000000000053469c     0x232c /usr/local/ps2dev/ee/lib/gcc-lib/ee/3.2.2/libgcc.a(_df_to_usi.o)
 .mdebug        0x00000000005369c8     0x1a8c /usr/local/ps2dev/ee/lib/gcc-lib/ee/3.2.2/libgcc.a(_clz.o)
 .mdebug        0x0000000000538454     0x1ff8 /usr/local/ps2dev/ee/lib/gcc-lib/ee/3.2.2/libgcc.a(_fixunssfdi.o)
 .mdebug        0x000000000053a44c     0x2394 /usr/local/ps2dev/ee/lib/gcc-lib/ee/3.2.2/libgcc.a(_unpack_sf.o)
 .mdebug        0x000000000053c7e0     0x1e68 /usr/local/ps2dev/ee/lib/gcc-lib/ee/3.2.2/libgcc.a(_make_sf.o)
 .mdebug        0x000000000053e648     0x2968 /usr/local/ps2dev/ee/lib/gcc-lib/ee/3.2.2/libgcc.a(_pack_df.o)
 .mdebug        0x0000000000540fb0     0x2398 /usr/local/ps2dev/ee/lib/gcc-lib/ee/3.2.2/libgcc.a(_unpack_df.o)
 .mdebug        0x0000000000543348     0x285c /usr/local/ps2dev/ee/lib/gcc-lib/ee/3.2.2/libgcc.a(_fpcmp_parts_df.o)
 .mdebug        0x0000000000545ba4     0x2a54 /usr/local/ps2dev/ee/lib/gcc-lib/ee/3.2.2/libgcc.a(_pack_sf.o)
 .mdebug        0x00000000005485f8      0x218 /usr/local/ps2dev/ee/lib/gcc-lib/ee/3.2.2/crtend.o
 .mdebug        0x0000000000548810      0x23c /usr/local/ps2dev/ee/lib/gcc-lib/ee/3.2.2/crtn.o

.mdebug.eabi64  0x0000000000000000        0x0

.comment        0x0000000000000000     0x1572
 .comment       0x0000000000000000       0x12 /usr/local/ps2dev/ee/lib/gcc-lib/ee/3.2.2/crtbegin.o
 .comment       0x0000000000000012       0x12 obj/pad.o
 .comment       0x0000000000000024       0x12 obj/fntsys.o
 .comment       0x0000000000000036       0x12 obj/renderman.o
 .comment       0x0000000000000048       0x12 obj/menusys.o
 .comment       0x000000000000005a       0x12 obj/OSDHistory.o
 .comment       0x000000000000006c       0x12 obj/system.o
 .comment       0x000000000000007e       0x12 obj/debug.o
 .comment       0x0000000000000090       0x12 obj/lang.o
 .comment       0x00000000000000a2       0x12 obj/config.o
 .comment       0x00000000000000b4       0x12 obj/hdd.o
 .comment       0x00000000000000c6       0x12 obj/dialogs.o
 .comment       0x00000000000000d8       0x12 obj/dia.o
 .comment       0x00000000000000ea       0x12 obj/ioman.o
 .comment       0x00000000000000fc       0x12 obj/texcache.o
 .comment       0x000000000000010e       0x12 obj/themes.o
 .comment       0x0000000000000120       0x12 obj/supportbase.o
 .comment       0x0000000000000132       0x12 obj/usbsupport.o
 .comment       0x0000000000000144       0x12 obj/ethsupport.o
 .comment       0x0000000000000156       0x12 obj/hddsupport.o
 .comment       0x0000000000000168       0x12 obj/appsupport.o
 .comment       0x000000000000017a       0x12 obj/gui.o
 .comment       0x000000000000018c       0x12 obj/textures.o
 .comment       0x000000000000019e       0x12 obj/opl.o
 .comment       0x00000000000001b0       0x12 obj/atlas.o
 .comment       0x00000000000001c2       0x12 obj/util.o
 .comment       0x00000000000001d4       0x12 /usr/local/ps2dev/gsKit/lib/libgskit.a(gsCore.o)
 .comment       0x00000000000001e6       0x12 /usr/local/ps2dev/gsKit/lib/libgskit.a(gsInit.o)
 .comment       0x00000000000001f8       0x12 /usr/local/ps2dev/gsKit/lib/libgskit.a(gsMisc.o)
 .comment       0x000000000000020a       0x12 /usr/local/ps2dev/gsKit/lib/libgskit.a(gsPrimitive.o)
 .comment       0x000000000000021c       0x12 /usr/local/ps2dev/gsKit/lib/libgskit.a(gsTexture.o)
 .comment       0x000000000000022e       0x12 /usr/local/ps2dev/gsKit/lib/libdmakit.a(dmaCore.o)
 .comment       0x0000000000000240       0x12 /usr/local/ps2dev/gsKit/lib/libdmakit.a(dmaInit.o)
 .comment       0x0000000000000252       0x12 /usr/local/ps2dev/ps2sdk/ee/lib/libpoweroff.a(poweroff.o)
 .comment       0x0000000000000264       0x12 /usr/local/ps2dev/ps2sdk/ee/lib/libfileXio.a(fileXio_rpc.o)
 .comment       0x0000000000000276       0x12 /usr/local/ps2dev/ps2sdk/ee/lib/libpatches.a(patch_enable_lmb.o)
 .comment       0x0000000000000288       0x12 /usr/local/ps2dev/ps2sdk/ee/lib/libpatches.a(patch_disable_prefix_check.o)
 .comment       0x000000000000029a       0x12 /usr/local/ps2dev/ps2sdk/ee/lib/libpatches.a(patch_fioremove.o)
 .comment       0x00000000000002ac       0x12 /usr/local/ps2dev/ps2sdk/ee/lib/libpatches.a(smem.o)
 .comment       0x00000000000002be       0x12 /usr/local/ps2dev/ps2sdk/ee/lib/libpatches.a(smod.o)
 .comment       0x00000000000002d0       0x12 /usr/local/ps2dev/ps2sdk/ee/lib/libpatches.a(slib.o)
 .comment       0x00000000000002e2       0x12 /usr/local/ps2dev/ps2sdk/ee/lib/libpad.a(libpad.o)
 .comment       0x00000000000002f4       0x12 /usr/local/ps2dev/ps2sdk/ports/lib/libjpeg.a(libjpg.o)
 .comment       0x0000000000000306       0x12 /usr/local/ps2dev/ps2sdk/ports/lib/libjpeg.a(jcapimin.o)
 .comment       0x0000000000000318       0x12 /usr/local/ps2dev/ps2sdk/ports/lib/libjpeg.a(jcapistd.o)
 .comment       0x000000000000032a       0x12 /usr/local/ps2dev/ps2sdk/ports/lib/libjpeg.a(jcparam.o)
 .comment       0x000000000000033c       0x12 /usr/local/ps2dev/ps2sdk/ports/lib/libjpeg.a(jcinit.o)
 .comment       0x000000000000034e       0x12 /usr/local/ps2dev/ps2sdk/ports/lib/libjpeg.a(jcmaster.o)
 .comment       0x0000000000000360       0x12 /usr/local/ps2dev/ps2sdk/ports/lib/libjpeg.a(jcmarker.o)
 .comment       0x0000000000000372       0x12 /usr/local/ps2dev/ps2sdk/ports/lib/libjpeg.a(jcmainct.o)
 .comment       0x0000000000000384       0x12 /usr/local/ps2dev/ps2sdk/ports/lib/libjpeg.a(jcprepct.o)
 .comment       0x0000000000000396       0x12 /usr/local/ps2dev/ps2sdk/ports/lib/libjpeg.a(jccoefct.o)
 .comment       0x00000000000003a8       0x12 /usr/local/ps2dev/ps2sdk/ports/lib/libjpeg.a(jccolor.o)
 .comment       0x00000000000003ba       0x12 /usr/local/ps2dev/ps2sdk/ports/lib/libjpeg.a(jcsample.o)
 .comment       0x00000000000003cc       0x12 /usr/local/ps2dev/ps2sdk/ports/lib/libjpeg.a(jchuff.o)
 .comment       0x00000000000003de       0x12 /usr/local/ps2dev/ps2sdk/ports/lib/libjpeg.a(jcphuff.o)
 .comment       0x00000000000003f0       0x12 /usr/local/ps2dev/ps2sdk/ports/lib/libjpeg.a(jcdctmgr.o)
 .comment       0x0000000000000402       0x12 /usr/local/ps2dev/ps2sdk/ports/lib/libjpeg.a(jfdctfst.o)
 .comment       0x0000000000000414       0x12 /usr/local/ps2dev/ps2sdk/ports/lib/libjpeg.a(jfdctflt.o)
 .comment       0x0000000000000426       0x12 /usr/local/ps2dev/ps2sdk/ports/lib/libjpeg.a(jfdctint.o)
 .comment       0x0000000000000438       0x12 /usr/local/ps2dev/ps2sdk/ports/lib/libjpeg.a(jdapimin.o)
 .comment       0x000000000000044a       0x12 /usr/local/ps2dev/ps2sdk/ports/lib/libjpeg.a(jdapistd.o)
 .comment       0x000000000000045c       0x12 /usr/local/ps2dev/ps2sdk/ports/lib/libjpeg.a(jdatasrc.o)
 .comment       0x000000000000046e       0x12 /usr/local/ps2dev/ps2sdk/ports/lib/libjpeg.a(jdmaster.o)
 .comment       0x0000000000000480       0x12 /usr/local/ps2dev/ps2sdk/ports/lib/libjpeg.a(jdinput.o)
 .comment       0x0000000000000492       0x12 /usr/local/ps2dev/ps2sdk/ports/lib/libjpeg.a(jdmarker.o)
 .comment       0x00000000000004a4       0x12 /usr/local/ps2dev/ps2sdk/ports/lib/libjpeg.a(jdhuff.o)
 .comment       0x00000000000004b6       0x12 /usr/local/ps2dev/ps2sdk/ports/lib/libjpeg.a(jdphuff.o)
 .comment       0x00000000000004c8       0x12 /usr/local/ps2dev/ps2sdk/ports/lib/libjpeg.a(jdmainct.o)
 .comment       0x00000000000004da       0x12 /usr/local/ps2dev/ps2sdk/ports/lib/libjpeg.a(jdcoefct.o)
 .comment       0x00000000000004ec       0x12 /usr/local/ps2dev/ps2sdk/ports/lib/libjpeg.a(jdpostct.o)
 .comment       0x00000000000004fe       0x12 /usr/local/ps2dev/ps2sdk/ports/lib/libjpeg.a(jddctmgr.o)
 .comment       0x0000000000000510       0x12 /usr/local/ps2dev/ps2sdk/ports/lib/libjpeg.a(jidctfst.o)
 .comment       0x0000000000000522       0x12 /usr/local/ps2dev/ps2sdk/ports/lib/libjpeg.a(jidctflt.o)
 .comment       0x0000000000000534       0x12 /usr/local/ps2dev/ps2sdk/ports/lib/libjpeg.a(jidctint.o)
 .comment       0x0000000000000546       0x12 /usr/local/ps2dev/ps2sdk/ports/lib/libjpeg.a(jidctred.o)
 .comment       0x0000000000000558       0x12 /usr/local/ps2dev/ps2sdk/ports/lib/libjpeg.a(jdsample.o)
 .comment       0x000000000000056a       0x12 /usr/local/ps2dev/ps2sdk/ports/lib/libjpeg.a(jdcolor.o)
 .comment       0x000000000000057c       0x12 /usr/local/ps2dev/ps2sdk/ports/lib/libjpeg.a(jquant1.o)
 .comment       0x000000000000058e       0x12 /usr/local/ps2dev/ps2sdk/ports/lib/libjpeg.a(jquant2.o)
 .comment       0x00000000000005a0       0x12 /usr/local/ps2dev/ps2sdk/ports/lib/libjpeg.a(jdmerge.o)
 .comment       0x00000000000005b2       0x12 /usr/local/ps2dev/ps2sdk/ports/lib/libjpeg.a(jcomapi.o)
 .comment       0x00000000000005c4       0x12 /usr/local/ps2dev/ps2sdk/ports/lib/libjpeg.a(jutils.o)
 .comment       0x00000000000005d6       0x12 /usr/local/ps2dev/ps2sdk/ports/lib/libjpeg.a(jerror.o)
 .comment       0x00000000000005e8       0x12 /usr/local/ps2dev/ps2sdk/ports/lib/libjpeg.a(jmemmgr.o)
 .comment       0x00000000000005fa       0x12 /usr/local/ps2dev/ps2sdk/ports/lib/libjpeg.a(jmemnobs.o)
 .comment       0x000000000000060c       0x12 /usr/local/ps2dev/ps2sdk/ports/lib/libpng.a(png.o)
 .comment       0x000000000000061e       0x12 /usr/local/ps2dev/ps2sdk/ports/lib/libpng.a(pngget.o)
 .comment       0x0000000000000630       0x12 /usr/local/ps2dev/ps2sdk/ports/lib/libpng.a(pngtrans.o)
 .comment       0x0000000000000642       0x12 /usr/local/ps2dev/ps2sdk/ports/lib/libpng.a(pngread.o)
 .comment       0x0000000000000654       0x12 /usr/local/ps2dev/ps2sdk/ports/lib/libpng.a(pngrio.o)
 .comment       0x0000000000000666       0x12 /usr/local/ps2dev/ps2sdk/ports/lib/libpng.a(pngrtran.o)
 .comment       0x0000000000000678       0x12 /usr/local/ps2dev/ps2sdk/ports/lib/libpng.a(pngmem.o)
 .comment       0x000000000000068a       0x12 /usr/local/ps2dev/ps2sdk/ports/lib/libpng.a(pngerror.o)
 .comment       0x000000000000069c       0x12 /usr/local/ps2dev/ps2sdk/ports/lib/libpng.a(pngrutil.o)
 .comment       0x00000000000006ae       0x12 /usr/local/ps2dev/ps2sdk/ports/lib/libpng.a(pngset.o)
 .comment       0x00000000000006c0       0x12 /usr/local/ps2dev/ps2sdk/ports/lib/libz.a(crc32.o)
 .comment       0x00000000000006d2       0x12 /usr/local/ps2dev/ps2sdk/ports/lib/libz.a(inflate.o)
 .comment       0x00000000000006e4       0x12 /usr/local/ps2dev/ps2sdk/ports/lib/libz.a(inftrees.o)
 .comment       0x00000000000006f6       0x12 /usr/local/ps2dev/ps2sdk/ports/lib/libz.a(zutil.o)
 .comment       0x0000000000000708       0x12 /usr/local/ps2dev/ps2sdk/ports/lib/libz.a(adler32.o)
 .comment       0x000000000000071a       0x12 /usr/local/ps2dev/ps2sdk/ports/lib/libz.a(inffast.o)
 .comment       0x000000000000072c       0x12 /usr/local/ps2dev/ps2sdk/ee/lib/libdebug.a(screenshot.o)
 .comment       0x000000000000073e       0x12 /usr/local/ps2dev/ee/lib/gcc-lib/ee/3.2.2/../../../../ee/lib/libm.a(s_ceil.o)
 .comment       0x0000000000000750       0x12 /usr/local/ps2dev/ee/lib/gcc-lib/ee/3.2.2/../../../../ee/lib/libm.a(s_floor.o)
 .comment       0x0000000000000762       0x12 /usr/local/ps2dev/ee/lib/gcc-lib/ee/3.2.2/../../../../ee/lib/libm.a(w_pow.o)
 .comment       0x0000000000000774       0x12 /usr/local/ps2dev/ee/lib/gcc-lib/ee/3.2.2/../../../../ee/lib/libm.a(e_pow.o)
 .comment       0x0000000000000786       0x12 /usr/local/ps2dev/ee/lib/gcc-lib/ee/3.2.2/../../../../ee/lib/libm.a(e_sqrt.o)
 .comment       0x0000000000000798       0x12 /usr/local/ps2dev/ee/lib/gcc-lib/ee/3.2.2/../../../../ee/lib/libm.a(s_fabs.o)
 .comment       0x00000000000007aa       0x12 /usr/local/ps2dev/ee/lib/gcc-lib/ee/3.2.2/../../../../ee/lib/libm.a(s_finite.o)
 .comment       0x00000000000007bc       0x12 /usr/local/ps2dev/ee/lib/gcc-lib/ee/3.2.2/../../../../ee/lib/libm.a(s_infconst.o)
 .comment       0x00000000000007ce       0x12 /usr/local/ps2dev/ee/lib/gcc-lib/ee/3.2.2/../../../../ee/lib/libm.a(s_isnan.o)
 .comment       0x00000000000007e0       0x12 /usr/local/ps2dev/ee/lib/gcc-lib/ee/3.2.2/../../../../ee/lib/libm.a(s_lib_ver.o)
 .comment       0x00000000000007f2       0x12 /usr/local/ps2dev/ee/lib/gcc-lib/ee/3.2.2/../../../../ee/lib/libm.a(s_matherr.o)
 .comment       0x0000000000000804       0x12 /usr/local/ps2dev/ee/lib/gcc-lib/ee/3.2.2/../../../../ee/lib/libm.a(s_rint.o)
 .comment       0x0000000000000816       0x12 /usr/local/ps2dev/ee/lib/gcc-lib/ee/3.2.2/../../../../ee/lib/libm.a(s_scalbn.o)
 .comment       0x0000000000000828       0x12 /usr/local/ps2dev/ee/lib/gcc-lib/ee/3.2.2/../../../../ee/lib/libm.a(s_copysign.o)
 .comment       0x000000000000083a       0x12 /usr/local/ps2dev/ps2sdk/ee/lib/libmc.a(libmc.o)
 .comment       0x000000000000084c       0x12 /usr/local/ps2dev/ps2sdk/ports/lib/libfreetype.a(ftinit.o)
 .comment       0x000000000000085e       0x12 /usr/local/ps2dev/ps2sdk/ports/lib/libfreetype.a(ftbase.o)
 .comment       0x0000000000000870       0x12 /usr/local/ps2dev/ps2sdk/ports/lib/libfreetype.a(autohint.o)
 .comment       0x0000000000000882       0x12 /usr/local/ps2dev/ps2sdk/ports/lib/libfreetype.a(bdf.o)
 .comment       0x0000000000000894       0x12 /usr/local/ps2dev/ps2sdk/ports/lib/libfreetype.a(cff.o)
 .comment       0x00000000000008a6       0x12 /usr/local/ps2dev/ps2sdk/ports/lib/libfreetype.a(type1cid.o)
 .comment       0x00000000000008b8       0x12 /usr/local/ps2dev/ps2sdk/ports/lib/libfreetype.a(pcf.o)
 .comment       0x00000000000008ca       0x12 /usr/local/ps2dev/ps2sdk/ports/lib/libfreetype.a(pfr.o)
 .comment       0x00000000000008dc       0x12 /usr/local/ps2dev/ps2sdk/ports/lib/libfreetype.a(psaux.o)
 .comment       0x00000000000008ee       0x12 /usr/local/ps2dev/ps2sdk/ports/lib/libfreetype.a(pshinter.o)
 .comment       0x0000000000000900       0x12 /usr/local/ps2dev/ps2sdk/ports/lib/libfreetype.a(psnames.o)
 .comment       0x0000000000000912       0x12 /usr/local/ps2dev/ps2sdk/ports/lib/libfreetype.a(raster.o)
 .comment       0x0000000000000924       0x12 /usr/local/ps2dev/ps2sdk/ports/lib/libfreetype.a(sfnt.o)
 .comment       0x0000000000000936       0x12 /usr/local/ps2dev/ps2sdk/ports/lib/libfreetype.a(smooth.o)
 .comment       0x0000000000000948       0x12 /usr/local/ps2dev/ps2sdk/ports/lib/libfreetype.a(truetype.o)
 .comment       0x000000000000095a       0x12 /usr/local/ps2dev/ps2sdk/ports/lib/libfreetype.a(type1.o)
 .comment       0x000000000000096c       0x12 /usr/local/ps2dev/ps2sdk/ports/lib/libfreetype.a(type42.o)
 .comment       0x000000000000097e       0x12 /usr/local/ps2dev/ps2sdk/ports/lib/libfreetype.a(winfnt.o)
 .comment       0x0000000000000990       0x12 /usr/local/ps2dev/ps2sdk/ports/lib/libfreetype.a(ftsystem.o)
 .comment       0x00000000000009a2       0x12 /usr/local/ps2dev/ps2sdk/ports/lib/libfreetype.a(ftglyph.o)
 .comment       0x00000000000009b4       0x12 /usr/local/ps2dev/ps2sdk/ports/lib/libfreetype.a(ftgzip.o)
 .comment       0x00000000000009c6       0x12 /usr/local/ps2dev/ps2sdk/ports/lib/libfreetype.a(ftlzw.o)
 .comment       0x00000000000009d8       0x12 /usr/local/ps2dev/ps2sdk/ee/lib/libvux.a(vuhw.o)
 .comment       0x00000000000009ea       0x12 /usr/local/ps2dev/ps2sdk/ee/lib/libcdvd.a(cdInit.o)
 .comment       0x00000000000009fc       0x12 /usr/local/ps2dev/ps2sdk/ee/lib/libcdvd.a(cdDiskReady.o)
 .comment       0x0000000000000a0e       0x12 /usr/local/ps2dev/ps2sdk/ee/lib/libcdvd.a(cdSemaInit.o)
 .comment       0x0000000000000a20       0x12 /usr/local/ps2dev/ps2sdk/ee/lib/libcdvd.a(cdSemaExit.o)
 .comment       0x0000000000000a32       0x12 /usr/local/ps2dev/ps2sdk/ee/lib/libcdvd.a(_ncmd_internals.o)
 .comment       0x0000000000000a44       0x12 /usr/local/ps2dev/ps2sdk/ee/lib/libcdvd.a(cdStandby.o)
 .comment       0x0000000000000a56       0x12 /usr/local/ps2dev/ps2sdk/ee/lib/libcdvd.a(cdStop.o)
 .comment       0x0000000000000a68       0x12 /usr/local/ps2dev/ps2sdk/ee/lib/libcdvd.a(cdNCmdDiskReady.o)
 .comment       0x0000000000000a7a       0x12 /usr/local/ps2dev/ps2sdk/ee/lib/libcdvd.a(cdSync.o)
 .comment       0x0000000000000a8c       0x12 /usr/local/ps2dev/ps2sdk/ee/lib/libcdvd.a(cdCheckNCmd.o)
 .comment       0x0000000000000a9e       0x12 /usr/local/ps2dev/ps2sdk/ee/lib/libcdvd.a(_scmd_internals.o)
 .comment       0x0000000000000ab0       0x12 /usr/local/ps2dev/ps2sdk/ee/lib/libcdvd.a(cdReadClock.o)
 .comment       0x0000000000000ac2       0x12 /usr/local/ps2dev/ps2sdk/ee/lib/libcdvd.a(cdGetDiscType.o)
 .comment       0x0000000000000ad4       0x12 /usr/local/ps2dev/ps2sdk/ee/lib/libcdvd.a(cdStatus.o)
 .comment       0x0000000000000ae6       0x12 /usr/local/ps2dev/ps2sdk/ee/lib/libcdvd.a(cdCheckSCmd.o)
 .comment       0x0000000000000af8       0x12 /usr/local/ps2dev/ps2sdk/ee/lib/libcdvd.a(cdSyncS.o)
 .comment       0x0000000000000b0a       0x12 /usr/local/ps2dev/ps2sdk/ee/lib/libcdvd.a(_libcdvd_internals.o)
 .comment       0x0000000000000b1c       0x12 /usr/local/ps2dev/ps2sdk/ee/lib/libcdvd.a(cdCallback.o)
 .comment       0x0000000000000b2e       0x12 /usr/local/ps2dev/ps2sdk/ee/lib/libc.a(terminate.o)
 .comment       0x0000000000000b40       0x12 /usr/local/ps2dev/ps2sdk/ee/lib/libc.a(qsort.o)
 .comment       0x0000000000000b52       0x12 /usr/local/ps2dev/ps2sdk/ee/lib/libc.a(snprintf.o)
 .comment       0x0000000000000b64       0x12 /usr/local/ps2dev/ps2sdk/ee/lib/libc.a(sprintf.o)
 .comment       0x0000000000000b76       0x12 /usr/local/ps2dev/ps2sdk/ee/lib/libc.a(fprintf.o)
 .comment       0x0000000000000b88       0x12 /usr/local/ps2dev/ps2sdk/ee/lib/libc.a(printf.o)
 .comment       0x0000000000000b9a       0x12 /usr/local/ps2dev/ps2sdk/ee/lib/libc.a(vprintf.o)
 .comment       0x0000000000000bac       0x12 /usr/local/ps2dev/ps2sdk/ee/lib/libc.a(sscanf.o)
 .comment       0x0000000000000bbe       0x12 /usr/local/ps2dev/ps2sdk/ee/lib/libc.a(_xscanf_internals.o)
 .comment       0x0000000000000bd0       0x12 /usr/local/ps2dev/ps2sdk/ee/lib/libc.a(malloc.o)
 .comment       0x0000000000000be2       0x12 /usr/local/ps2dev/ps2sdk/ee/lib/libc.a(realloc.o)
 .comment       0x0000000000000bf4       0x12 /usr/local/ps2dev/ps2sdk/ee/lib/libc.a(calloc.o)
 .comment       0x0000000000000c06       0x12 /usr/local/ps2dev/ps2sdk/ee/lib/libc.a(memalign.o)
 .comment       0x0000000000000c18       0x12 /usr/local/ps2dev/ps2sdk/ee/lib/libc.a(free.o)
 .comment       0x0000000000000c2a       0x12 /usr/local/ps2dev/ps2sdk/ee/lib/libc.a(__alloc_internals.o)
 .comment       0x0000000000000c3c       0x12 /usr/local/ps2dev/ps2sdk/ee/lib/libc.a(strcasecmp.o)
 .comment       0x0000000000000c4e       0x12 /usr/local/ps2dev/ps2sdk/ee/lib/libc.a(strrchr.o)
 .comment       0x0000000000000c60       0x12 /usr/local/ps2dev/ps2sdk/ee/lib/libc.a(strstr.o)
 .comment       0x0000000000000c72       0x12 /usr/local/ps2dev/ps2sdk/ee/lib/libc.a(tolower.o)
 .comment       0x0000000000000c84       0x12 /usr/local/ps2dev/ps2sdk/ee/lib/libc.a(isupper.o)
 .comment       0x0000000000000c96       0x12 /usr/local/ps2dev/ps2sdk/ee/lib/libc.a(isdigit.o)
 .comment       0x0000000000000ca8       0x12 /usr/local/ps2dev/ps2sdk/ee/lib/libc.a(isalnum.o)
 .comment       0x0000000000000cba       0x12 /usr/local/ps2dev/ps2sdk/ee/lib/libc.a(isprint.o)
 .comment       0x0000000000000ccc       0x12 /usr/local/ps2dev/ps2sdk/ee/lib/libc.a(isxdigit.o)
 .comment       0x0000000000000cde       0x12 /usr/local/ps2dev/ps2sdk/ee/lib/libc.a(fclose.o)
 .comment       0x0000000000000cf0       0x12 /usr/local/ps2dev/ps2sdk/ee/lib/libc.a(fgetc.o)
 .comment       0x0000000000000d02       0x12 /usr/local/ps2dev/ps2sdk/ee/lib/libc.a(fopen.o)
 .comment       0x0000000000000d14       0x12 /usr/local/ps2dev/ps2sdk/ee/lib/libc.a(fputc.o)
 .comment       0x0000000000000d26       0x12 /usr/local/ps2dev/ps2sdk/ee/lib/libc.a(fread.o)
 .comment       0x0000000000000d38       0x12 /usr/local/ps2dev/ps2sdk/ee/lib/libc.a(fseek.o)
 .comment       0x0000000000000d4a       0x12 /usr/local/ps2dev/ps2sdk/ee/lib/libc.a(ftell.o)
 .comment       0x0000000000000d5c       0x12 /usr/local/ps2dev/ps2sdk/ee/lib/libc.a(fwrite.o)
 .comment       0x0000000000000d6e       0x12 /usr/local/ps2dev/ps2sdk/ee/lib/libc.a(getfdtype.o)
 .comment       0x0000000000000d80       0x12 /usr/local/ps2dev/ps2sdk/ee/lib/libc.a(putc.o)
 .comment       0x0000000000000d92       0x12 /usr/local/ps2dev/ps2sdk/ee/lib/libc.a(puts.o)
 .comment       0x0000000000000da4       0x12 /usr/local/ps2dev/ps2sdk/ee/lib/libc.a(stdio.o)
 .comment       0x0000000000000db6       0x12 /usr/local/ps2dev/ps2sdk/ee/lib/libc.a(ungetc.o)
 .comment       0x0000000000000dc8       0x12 /usr/local/ps2dev/ps2sdk/ee/lib/libc.a(__stdio_internals.o)
 .comment       0x0000000000000dda       0x12 /usr/local/ps2dev/ps2sdk/ee/lib/libc.a(getenv.o)
 .comment       0x0000000000000dec       0x12 /usr/local/ps2dev/ps2sdk/ee/lib/libc.a(rand.o)
 .comment       0x0000000000000dfe       0x12 /usr/local/ps2dev/ps2sdk/ee/lib/libc.a(strtod.o)
 .comment       0x0000000000000e10       0x12 /usr/local/ps2dev/ps2sdk/ee/lib/libc.a(strtol.o)
 .comment       0x0000000000000e22       0x12 /usr/local/ps2dev/ps2sdk/ee/lib/libc.a(__assert_fail.o)
 .comment       0x0000000000000e34       0x12 /usr/local/ps2dev/ps2sdk/ee/lib/libc.a(__stdlib_internals.o)
 .comment       0x0000000000000e46       0x12 /usr/local/ps2dev/ps2sdk/ee/lib/libc.a(sleep.o)
 .comment       0x0000000000000e58       0x12 /usr/local/ps2dev/ps2sdk/ee/lib/libc.a(clock.o)
 .comment       0x0000000000000e6a       0x12 /usr/local/ps2dev/ps2sdk/ee/lib/libc.a(init_libc.o)
 .comment       0x0000000000000e7c       0x12 /usr/local/ps2dev/ps2sdk/ee/lib/libc.a(init_args.o)
 .comment       0x0000000000000e8e       0x12 /usr/local/ps2dev/ps2sdk/ee/lib/libc.a(sbrk.o)
 .comment       0x0000000000000ea0       0x12 /usr/local/ps2dev/ps2sdk/ee/lib/libc.a(vxprintf.o)
 .comment       0x0000000000000eb2       0x12 /usr/local/ps2dev/ps2sdk/ee/lib/libc.a(__sout.o)
 .comment       0x0000000000000ec4       0x12 /usr/local/ps2dev/ps2sdk/ee/lib/libc.a(vsnprintf.o)
 .comment       0x0000000000000ed6       0x12 /usr/local/ps2dev/ps2sdk/ee/lib/libc.a(__fout.o)
 .comment       0x0000000000000ee8       0x12 /usr/local/ps2dev/ps2sdk/ee/lib/libc.a(putchar.o)
 .comment       0x0000000000000efa       0x12 /usr/local/ps2dev/ps2sdk/ee/lib/libc.a(vxscanf.o)
 .comment       0x0000000000000f0c       0x12 /usr/local/ps2dev/ps2sdk/ee/lib/libc.a(isalpha.o)
 .comment       0x0000000000000f1e       0x12 /usr/local/ps2dev/ps2sdk/ee/lib/libc.a(iscntrl.o)
 .comment       0x0000000000000f30       0x12 /usr/local/ps2dev/ps2sdk/ee/lib/libc.a(isspace.o)
 .comment       0x0000000000000f42       0x12 /usr/local/ps2dev/ps2sdk/ee/lib/libc.a(fcloseall.o)
 .comment       0x0000000000000f54       0x12 /usr/local/ps2dev/ps2sdk/ee/lib/libc.a(chdir.o)
 .comment       0x0000000000000f66       0x12 /usr/local/ps2dev/ps2sdk/ee/lib/libc.a(islower.o)
 .comment       0x0000000000000f78       0x12 /usr/local/ps2dev/ps2sdk/ee/lib/libkernel.a(sif_cmd_addhandler.o)
 .comment       0x0000000000000f8a       0x12 /usr/local/ps2dev/ps2sdk/ee/lib/libkernel.a(SifBindRpc.o)
 .comment       0x0000000000000f9c       0x12 /usr/local/ps2dev/ps2sdk/ee/lib/libkernel.a(SifCallRpc.o)
 .comment       0x0000000000000fae       0x12 /usr/local/ps2dev/ps2sdk/ee/lib/libkernel.a(SifRpcMain.o)
 .comment       0x0000000000000fc0       0x12 /usr/local/ps2dev/ps2sdk/ee/lib/libkernel.a(_rpc_get_packet.o)
 .comment       0x0000000000000fd2       0x12 /usr/local/ps2dev/ps2sdk/ee/lib/libkernel.a(_rpc_get_fpacket.o)
 .comment       0x0000000000000fe4       0x12 /usr/local/ps2dev/ps2sdk/ee/lib/libkernel.a(SifCheckStatRpc.o)
 .comment       0x0000000000000ff6       0x12 /usr/local/ps2dev/ps2sdk/ee/lib/libkernel.a(fio_exit.o)
 .comment       0x0000000000001008       0x12 /usr/local/ps2dev/ps2sdk/ee/lib/libkernel.a(fio_open.o)
 .comment       0x000000000000101a       0x12 /usr/local/ps2dev/ps2sdk/ee/lib/libkernel.a(fio_close.o)
 .comment       0x000000000000102c       0x12 /usr/local/ps2dev/ps2sdk/ee/lib/libkernel.a(fio_read.o)
 .comment       0x000000000000103e       0x12 /usr/local/ps2dev/ps2sdk/ee/lib/libkernel.a(fio_write.o)
 .comment       0x0000000000001050       0x12 /usr/local/ps2dev/ps2sdk/ee/lib/libkernel.a(fio_lseek.o)
 .comment       0x0000000000001062       0x12 /usr/local/ps2dev/ps2sdk/ee/lib/libkernel.a(fio_mkdir.o)
 .comment       0x0000000000001074       0x12 /usr/local/ps2dev/ps2sdk/ee/lib/libkernel.a(_fio_read_intr.o)
 .comment       0x0000000000001086       0x12 /usr/local/ps2dev/ps2sdk/ee/lib/libkernel.a(fio_ioctl.o)
 .comment       0x0000000000001098       0x12 /usr/local/ps2dev/ps2sdk/ee/lib/libkernel.a(fio_dopen.o)
 .comment       0x00000000000010aa       0x12 /usr/local/ps2dev/ps2sdk/ee/lib/libkernel.a(fio_dclose.o)
 .comment       0x00000000000010bc       0x12 /usr/local/ps2dev/ps2sdk/ee/lib/libkernel.a(fio_dread.o)
 .comment       0x00000000000010ce       0x12 /usr/local/ps2dev/ps2sdk/ee/lib/libkernel.a(fio_getstat.o)
 .comment       0x00000000000010e0       0x12 /usr/local/ps2dev/ps2sdk/ee/lib/libkernel.a(fio_remove.o)
 .comment       0x00000000000010f2       0x12 /usr/local/ps2dev/ps2sdk/ee/lib/libkernel.a(fio_rmdir.o)
 .comment       0x0000000000001104       0x12 /usr/local/ps2dev/ps2sdk/ee/lib/libkernel.a(SifLoadFileInit.o)
 .comment       0x0000000000001116       0x12 /usr/local/ps2dev/ps2sdk/ee/lib/libkernel.a(SifLoadFileExit.o)
 .comment       0x0000000000001128       0x12 /usr/local/ps2dev/ps2sdk/ee/lib/libkernel.a(SifLoadModule.o)
 .comment       0x000000000000113a       0x12 /usr/local/ps2dev/ps2sdk/ee/lib/libkernel.a(SifExecModuleBuffer.o)
 .comment       0x000000000000114c       0x12 /usr/local/ps2dev/ps2sdk/ee/lib/libkernel.a(SifInitIopHeap.o)
 .comment       0x000000000000115e       0x12 /usr/local/ps2dev/ps2sdk/ee/lib/libkernel.a(SifExitIopHeap.o)
 .comment       0x0000000000001170       0x12 /usr/local/ps2dev/ps2sdk/ee/lib/libkernel.a(SifAllocIopHeap.o)
 .comment       0x0000000000001182       0x12 /usr/local/ps2dev/ps2sdk/ee/lib/libkernel.a(SifFreeIopHeap.o)
 .comment       0x0000000000001194       0x12 /usr/local/ps2dev/ps2sdk/ee/lib/libkernel.a(SifIopReset.o)
 .comment       0x00000000000011a6       0x12 /usr/local/ps2dev/ps2sdk/ee/lib/libkernel.a(SifIopSync.o)
 .comment       0x00000000000011b8       0x12 /usr/local/ps2dev/ps2sdk/ee/lib/libkernel.a(__iop_control_internals.o)
 .comment       0x00000000000011ca       0x12 /usr/local/ps2dev/ps2sdk/ee/lib/libkernel.a(GetRomName.o)
 .comment       0x00000000000011dc       0x12 /usr/local/ps2dev/ps2sdk/ee/lib/libkernel.a(configGetTvScreenType.o)
 .comment       0x00000000000011ee       0x12 /usr/local/ps2dev/ps2sdk/ee/lib/libkernel.a(DIntr.o)
 .comment       0x0000000000001200       0x12 /usr/local/ps2dev/ps2sdk/ee/lib/libkernel.a(EIntr.o)
 .comment       0x0000000000001212       0x12 /usr/local/ps2dev/ps2sdk/ee/lib/libkernel.a(EnableIntc.o)
 .comment       0x0000000000001224       0x12 /usr/local/ps2dev/ps2sdk/ee/lib/libkernel.a(DisableIntc.o)
 .comment       0x0000000000001236       0x12 /usr/local/ps2dev/ps2sdk/ee/lib/libkernel.a(SyncDCache.o)
 .comment       0x0000000000001248       0x12 /usr/local/ps2dev/ps2sdk/ee/lib/libkernel.a(sio_putc.o)
 .comment       0x000000000000125a       0x12 /usr/local/ps2dev/ps2sdk/ee/lib/libkernel.a(cpu_ticks.o)
 .comment       0x000000000000126c       0x12 /usr/local/ps2dev/ps2sdk/ee/lib/libkernel.a(sif_cmd_send.o)
 .comment       0x000000000000127e       0x12 /usr/local/ps2dev/ps2sdk/ee/lib/libkernel.a(sif_cmd_main.o)
 .comment       0x0000000000001290       0x12 /usr/local/ps2dev/ps2sdk/ee/lib/libkernel.a(sif_sreg_get.o)
 .comment       0x00000000000012a2       0x12 /usr/local/ps2dev/ps2sdk/ee/lib/libkernel.a(__fio_internals.o)
 .comment       0x00000000000012b4       0x12 /usr/local/ps2dev/ps2sdk/ee/lib/libkernel.a(fio_init.o)
 .comment       0x00000000000012c6       0x12 /usr/local/ps2dev/ps2sdk/ee/lib/libkernel.a(_fio_intr.o)
 .comment       0x00000000000012d8       0x12 /usr/local/ps2dev/ps2sdk/ee/lib/libkernel.a(_SifLoadModule.o)
 .comment       0x00000000000012ea       0x12 /usr/local/ps2dev/ps2sdk/ee/lib/libkernel.a(_SifLoadModuleBuffer.o)
 .comment       0x00000000000012fc       0x12 /usr/local/ps2dev/ps2sdk/ee/lib/libkernel.a(_config_internals.o)
 .comment       0x000000000000130e       0x12 /usr/local/ps2dev/ps2sdk/ee/lib/libkernel.a(IsT10K.o)
 .comment       0x0000000000001320       0x12 /usr/local/ps2dev/ps2sdk/ee/lib/libkernel.a(EnableDmac.o)
 .comment       0x0000000000001332       0x12 /usr/local/ps2dev/ps2sdk/ee/lib/libkernel.a(DisableDmac.o)
 .comment       0x0000000000001344       0x12 /usr/local/ps2dev/ps2sdk/ee/lib/libkernel.a(_sif_cmd_int_handler.o)
 .comment       0x0000000000001356       0x12 /usr/local/ps2dev/ee/lib/gcc-lib/ee/3.2.2/libgcc.a(_muldi3.o)
 .comment       0x0000000000001368       0x12 /usr/local/ps2dev/ee/lib/gcc-lib/ee/3.2.2/libgcc.a(_floatdidf.o)
 .comment       0x000000000000137a       0x12 /usr/local/ps2dev/ee/lib/gcc-lib/ee/3.2.2/libgcc.a(_floatdisf.o)
 .comment       0x000000000000138c       0x12 /usr/local/ps2dev/ee/lib/gcc-lib/ee/3.2.2/libgcc.a(_fixunsdfdi.o)
 .comment       0x000000000000139e       0x12 /usr/local/ps2dev/ee/lib/gcc-lib/ee/3.2.2/libgcc.a(_fixdfdi.o)
 .comment       0x00000000000013b0       0x12 /usr/local/ps2dev/ee/lib/gcc-lib/ee/3.2.2/libgcc.a(_fixsfdi.o)
 .comment       0x00000000000013c2       0x12 /usr/local/ps2dev/ee/lib/gcc-lib/ee/3.2.2/libgcc.a(_divdi3.o)
 .comment       0x00000000000013d4       0x12 /usr/local/ps2dev/ee/lib/gcc-lib/ee/3.2.2/libgcc.a(_moddi3.o)
 .comment       0x00000000000013e6       0x12 /usr/local/ps2dev/ee/lib/gcc-lib/ee/3.2.2/libgcc.a(_udivdi3.o)
 .comment       0x00000000000013f8       0x12 /usr/local/ps2dev/ee/lib/gcc-lib/ee/3.2.2/libgcc.a(_umoddi3.o)
 .comment       0x000000000000140a       0x12 /usr/local/ps2dev/ee/lib/gcc-lib/ee/3.2.2/libgcc.a(_sf_to_df.o)
 .comment       0x000000000000141c       0x12 /usr/local/ps2dev/ee/lib/gcc-lib/ee/3.2.2/libgcc.a(_addsub_df.o)
 .comment       0x000000000000142e       0x12 /usr/local/ps2dev/ee/lib/gcc-lib/ee/3.2.2/libgcc.a(_mul_df.o)
 .comment       0x0000000000001440       0x12 /usr/local/ps2dev/ee/lib/gcc-lib/ee/3.2.2/libgcc.a(_div_df.o)
 .comment       0x0000000000001452       0x12 /usr/local/ps2dev/ee/lib/gcc-lib/ee/3.2.2/libgcc.a(_compare_df.o)
 .comment       0x0000000000001464       0x12 /usr/local/ps2dev/ee/lib/gcc-lib/ee/3.2.2/libgcc.a(_si_to_df.o)
 .comment       0x0000000000001476       0x12 /usr/local/ps2dev/ee/lib/gcc-lib/ee/3.2.2/libgcc.a(_df_to_si.o)
 .comment       0x0000000000001488       0x12 /usr/local/ps2dev/ee/lib/gcc-lib/ee/3.2.2/libgcc.a(_make_df.o)
 .comment       0x000000000000149a       0x12 /usr/local/ps2dev/ee/lib/gcc-lib/ee/3.2.2/libgcc.a(_df_to_sf.o)
 .comment       0x00000000000014ac       0x12 /usr/local/ps2dev/ee/lib/gcc-lib/ee/3.2.2/libgcc.a(_thenan_df.o)
 .comment       0x00000000000014be       0x12 /usr/local/ps2dev/ee/lib/gcc-lib/ee/3.2.2/libgcc.a(_df_to_usi.o)
 .comment       0x00000000000014d0       0x12 /usr/local/ps2dev/ee/lib/gcc-lib/ee/3.2.2/libgcc.a(_clz.o)
 .comment       0x00000000000014e2       0x12 /usr/local/ps2dev/ee/lib/gcc-lib/ee/3.2.2/libgcc.a(_fixunssfdi.o)
 .comment       0x00000000000014f4       0x12 /usr/local/ps2dev/ee/lib/gcc-lib/ee/3.2.2/libgcc.a(_unpack_sf.o)
 .comment       0x0000000000001506       0x12 /usr/local/ps2dev/ee/lib/gcc-lib/ee/3.2.2/libgcc.a(_make_sf.o)
 .comment       0x0000000000001518       0x12 /usr/local/ps2dev/ee/lib/gcc-lib/ee/3.2.2/libgcc.a(_pack_df.o)
 .comment       0x000000000000152a       0x12 /usr/local/ps2dev/ee/lib/gcc-lib/ee/3.2.2/libgcc.a(_unpack_df.o)
 .comment       0x000000000000153c       0x12 /usr/local/ps2dev/ee/lib/gcc-lib/ee/3.2.2/libgcc.a(_fpcmp_parts_df.o)
 .comment       0x000000000000154e       0x12 /usr/local/ps2dev/ee/lib/gcc-lib/ee/3.2.2/libgcc.a(_pack_sf.o)
 .comment       0x0000000000001560       0x12 /usr/local/ps2dev/ee/lib/gcc-lib/ee/3.2.2/crtend.o

.debug_abbrev   0x0000000000000000     0xdb5b
 .debug_abbrev  0x0000000000000000      0x390 obj/pad.o
 .debug_abbrev  0x0000000000000390      0x42d obj/fntsys.o
 .debug_abbrev  0x00000000000007bd      0x386 obj/renderman.o
 .debug_abbrev  0x0000000000000b43      0x457 obj/menusys.o
 .debug_abbrev  0x0000000000000f9a      0x257 obj/OSDHistory.o
 .debug_abbrev  0x00000000000011f1      0x3a8 obj/system.o
 .debug_abbrev  0x0000000000001599      0x240 obj/debug.o
 .debug_abbrev  0x00000000000017d9      0x310 obj/lang.o
 .debug_abbrev  0x0000000000001ae9      0x3b1 obj/config.o
 .debug_abbrev  0x0000000000001e9a      0x350 obj/hdd.o
 .debug_abbrev  0x00000000000021ea      0x207 obj/dialogs.o
 .debug_abbrev  0x00000000000023f1      0x389 obj/dia.o
 .debug_abbrev  0x000000000000277a      0x2cc obj/ioman.o
 .debug_abbrev  0x0000000000002a46      0x2d3 obj/texcache.o
 .debug_abbrev  0x0000000000002d19      0x392 obj/themes.o
 .debug_abbrev  0x00000000000030ab      0x345 obj/supportbase.o
 .debug_abbrev  0x00000000000033f0      0x340 obj/usbsupport.o
 .debug_abbrev  0x0000000000003730      0x35b obj/ethsupport.o
 .debug_abbrev  0x0000000000003a8b      0x3ad obj/hddsupport.o
 .debug_abbrev  0x0000000000003e38      0x2d7 obj/appsupport.o
 .debug_abbrev  0x000000000000410f      0x41e obj/gui.o
 .debug_abbrev  0x000000000000452d      0x337 obj/textures.o
 .debug_abbrev  0x0000000000004864      0x3dc obj/opl.o
 .debug_abbrev  0x0000000000004c40      0x2d4 obj/atlas.o
 .debug_abbrev  0x0000000000004f14      0x358 obj/util.o
 .debug_abbrev  0x000000000000526c      0x1c0 /usr/local/ps2dev/ee/lib/gcc-lib/ee/3.2.2/../../../../ee/lib/libm.a(s_ceil.o)
 .debug_abbrev  0x000000000000542c      0x1c0 /usr/local/ps2dev/ee/lib/gcc-lib/ee/3.2.2/../../../../ee/lib/libm.a(s_floor.o)
 .debug_abbrev  0x00000000000055ec      0x1ca /usr/local/ps2dev/ee/lib/gcc-lib/ee/3.2.2/../../../../ee/lib/libm.a(w_pow.o)
 .debug_abbrev  0x00000000000057b6      0x201 /usr/local/ps2dev/ee/lib/gcc-lib/ee/3.2.2/../../../../ee/lib/libm.a(e_pow.o)
 .debug_abbrev  0x00000000000059b7      0x1c0 /usr/local/ps2dev/ee/lib/gcc-lib/ee/3.2.2/../../../../ee/lib/libm.a(e_sqrt.o)
 .debug_abbrev  0x0000000000005b77      0x1be /usr/local/ps2dev/ee/lib/gcc-lib/ee/3.2.2/../../../../ee/lib/libm.a(s_fabs.o)
 .debug_abbrev  0x0000000000005d35      0x1b5 /usr/local/ps2dev/ee/lib/gcc-lib/ee/3.2.2/../../../../ee/lib/libm.a(s_finite.o)
 .debug_abbrev  0x0000000000005eea      0x176 /usr/local/ps2dev/ee/lib/gcc-lib/ee/3.2.2/../../../../ee/lib/libm.a(s_infconst.o)
 .debug_abbrev  0x0000000000006060      0x1c4 /usr/local/ps2dev/ee/lib/gcc-lib/ee/3.2.2/../../../../ee/lib/libm.a(s_isnan.o)
 .debug_abbrev  0x0000000000006224      0x176 /usr/local/ps2dev/ee/lib/gcc-lib/ee/3.2.2/../../../../ee/lib/libm.a(s_lib_ver.o)
 .debug_abbrev  0x000000000000639a      0x19d /usr/local/ps2dev/ee/lib/gcc-lib/ee/3.2.2/../../../../ee/lib/libm.a(s_matherr.o)
 .debug_abbrev  0x0000000000006537      0x1d4 /usr/local/ps2dev/ee/lib/gcc-lib/ee/3.2.2/../../../../ee/lib/libm.a(s_rint.o)
 .debug_abbrev  0x000000000000670b      0x1d6 /usr/local/ps2dev/ee/lib/gcc-lib/ee/3.2.2/../../../../ee/lib/libm.a(s_scalbn.o)
 .debug_abbrev  0x00000000000068e1      0x1c9 /usr/local/ps2dev/ee/lib/gcc-lib/ee/3.2.2/../../../../ee/lib/libm.a(s_copysign.o)
 .debug_abbrev  0x0000000000006aaa      0x224 /usr/local/ps2dev/ps2sdk/ports/lib/libfreetype.a(ftinit.o)
 .debug_abbrev  0x0000000000006cce      0x3aa /usr/local/ps2dev/ps2sdk/ports/lib/libfreetype.a(ftbase.o)
 .debug_abbrev  0x0000000000007078      0x315 /usr/local/ps2dev/ps2sdk/ports/lib/libfreetype.a(autohint.o)
 .debug_abbrev  0x000000000000738d      0x324 /usr/local/ps2dev/ps2sdk/ports/lib/libfreetype.a(bdf.o)
 .debug_abbrev  0x00000000000076b1      0x34d /usr/local/ps2dev/ps2sdk/ports/lib/libfreetype.a(cff.o)
 .debug_abbrev  0x00000000000079fe      0x327 /usr/local/ps2dev/ps2sdk/ports/lib/libfreetype.a(type1cid.o)
 .debug_abbrev  0x0000000000007d25      0x2dc /usr/local/ps2dev/ps2sdk/ports/lib/libfreetype.a(pcf.o)
 .debug_abbrev  0x0000000000008001      0x308 /usr/local/ps2dev/ps2sdk/ports/lib/libfreetype.a(pfr.o)
 .debug_abbrev  0x0000000000008309      0x31b /usr/local/ps2dev/ps2sdk/ports/lib/libfreetype.a(psaux.o)
 .debug_abbrev  0x0000000000008624      0x33c /usr/local/ps2dev/ps2sdk/ports/lib/libfreetype.a(pshinter.o)
 .debug_abbrev  0x0000000000008960      0x29e /usr/local/ps2dev/ps2sdk/ports/lib/libfreetype.a(psnames.o)
 .debug_abbrev  0x0000000000008bfe      0x327 /usr/local/ps2dev/ps2sdk/ports/lib/libfreetype.a(raster.o)
 .debug_abbrev  0x0000000000008f25      0x35c /usr/local/ps2dev/ps2sdk/ports/lib/libfreetype.a(sfnt.o)
 .debug_abbrev  0x0000000000009281      0x315 /usr/local/ps2dev/ps2sdk/ports/lib/libfreetype.a(smooth.o)
 .debug_abbrev  0x0000000000009596      0x322 /usr/local/ps2dev/ps2sdk/ports/lib/libfreetype.a(truetype.o)
 .debug_abbrev  0x00000000000098b8      0x317 /usr/local/ps2dev/ps2sdk/ports/lib/libfreetype.a(type1.o)
 .debug_abbrev  0x0000000000009bcf      0x33c /usr/local/ps2dev/ps2sdk/ports/lib/libfreetype.a(type42.o)
 .debug_abbrev  0x0000000000009f0b      0x2b4 /usr/local/ps2dev/ps2sdk/ports/lib/libfreetype.a(winfnt.o)
 .debug_abbrev  0x000000000000a1bf      0x255 /usr/local/ps2dev/ps2sdk/ports/lib/libfreetype.a(ftsystem.o)
 .debug_abbrev  0x000000000000a414      0x34c /usr/local/ps2dev/ps2sdk/ports/lib/libfreetype.a(ftglyph.o)
 .debug_abbrev  0x000000000000a760      0x2f1 /usr/local/ps2dev/ps2sdk/ports/lib/libfreetype.a(ftgzip.o)
 .debug_abbrev  0x000000000000aa51      0x2e8 /usr/local/ps2dev/ps2sdk/ports/lib/libfreetype.a(ftlzw.o)
 .debug_abbrev  0x000000000000ad39      0x143 /usr/local/ps2dev/ee/lib/gcc-lib/ee/3.2.2/libgcc.a(_muldi3.o)
 .debug_abbrev  0x000000000000ae7c      0x12f /usr/local/ps2dev/ee/lib/gcc-lib/ee/3.2.2/libgcc.a(_floatdidf.o)
 .debug_abbrev  0x000000000000afab      0x12f /usr/local/ps2dev/ee/lib/gcc-lib/ee/3.2.2/libgcc.a(_floatdisf.o)
 .debug_abbrev  0x000000000000b0da      0x13c /usr/local/ps2dev/ee/lib/gcc-lib/ee/3.2.2/libgcc.a(_fixunsdfdi.o)
 .debug_abbrev  0x000000000000b216      0x120 /usr/local/ps2dev/ee/lib/gcc-lib/ee/3.2.2/libgcc.a(_fixdfdi.o)
 .debug_abbrev  0x000000000000b336      0x120 /usr/local/ps2dev/ee/lib/gcc-lib/ee/3.2.2/libgcc.a(_fixsfdi.o)
 .debug_abbrev  0x000000000000b456      0x228 /usr/local/ps2dev/ee/lib/gcc-lib/ee/3.2.2/libgcc.a(_divdi3.o)
 .debug_abbrev  0x000000000000b67e      0x228 /usr/local/ps2dev/ee/lib/gcc-lib/ee/3.2.2/libgcc.a(_moddi3.o)
 .debug_abbrev  0x000000000000b8a6      0x1cd /usr/local/ps2dev/ee/lib/gcc-lib/ee/3.2.2/libgcc.a(_udivdi3.o)
 .debug_abbrev  0x000000000000ba73      0x1dc /usr/local/ps2dev/ee/lib/gcc-lib/ee/3.2.2/libgcc.a(_umoddi3.o)
 .debug_abbrev  0x000000000000bc4f      0x180 /usr/local/ps2dev/ee/lib/gcc-lib/ee/3.2.2/libgcc.a(_sf_to_df.o)
 .debug_abbrev  0x000000000000bdcf      0x20f /usr/local/ps2dev/ee/lib/gcc-lib/ee/3.2.2/libgcc.a(_addsub_df.o)
 .debug_abbrev  0x000000000000bfde      0x22a /usr/local/ps2dev/ee/lib/gcc-lib/ee/3.2.2/libgcc.a(_mul_df.o)
 .debug_abbrev  0x000000000000c208      0x22e /usr/local/ps2dev/ee/lib/gcc-lib/ee/3.2.2/libgcc.a(_div_df.o)
 .debug_abbrev  0x000000000000c436      0x180 /usr/local/ps2dev/ee/lib/gcc-lib/ee/3.2.2/libgcc.a(_compare_df.o)
 .debug_abbrev  0x000000000000c5b6      0x180 /usr/local/ps2dev/ee/lib/gcc-lib/ee/3.2.2/libgcc.a(_si_to_df.o)
 .debug_abbrev  0x000000000000c736      0x1bf /usr/local/ps2dev/ee/lib/gcc-lib/ee/3.2.2/libgcc.a(_df_to_si.o)
 .debug_abbrev  0x000000000000c8f5      0x18f /usr/local/ps2dev/ee/lib/gcc-lib/ee/3.2.2/libgcc.a(_make_df.o)
 .debug_abbrev  0x000000000000ca84      0x18f /usr/local/ps2dev/ee/lib/gcc-lib/ee/3.2.2/libgcc.a(_df_to_sf.o)
 .debug_abbrev  0x000000000000cc13      0x146 /usr/local/ps2dev/ee/lib/gcc-lib/ee/3.2.2/libgcc.a(_thenan_df.o)
 .debug_abbrev  0x000000000000cd59      0x1bf /usr/local/ps2dev/ee/lib/gcc-lib/ee/3.2.2/libgcc.a(_df_to_usi.o)
 .debug_abbrev  0x000000000000cf18      0x10d /usr/local/ps2dev/ee/lib/gcc-lib/ee/3.2.2/libgcc.a(_clz.o)
 .debug_abbrev  0x000000000000d025      0x13c /usr/local/ps2dev/ee/lib/gcc-lib/ee/3.2.2/libgcc.a(_fixunssfdi.o)
 .debug_abbrev  0x000000000000d161      0x18d /usr/local/ps2dev/ee/lib/gcc-lib/ee/3.2.2/libgcc.a(_unpack_sf.o)
 .debug_abbrev  0x000000000000d2ee      0x18f /usr/local/ps2dev/ee/lib/gcc-lib/ee/3.2.2/libgcc.a(_make_sf.o)
 .debug_abbrev  0x000000000000d47d      0x1ca /usr/local/ps2dev/ee/lib/gcc-lib/ee/3.2.2/libgcc.a(_pack_df.o)
 .debug_abbrev  0x000000000000d647      0x19a /usr/local/ps2dev/ee/lib/gcc-lib/ee/3.2.2/libgcc.a(_unpack_df.o)
 .debug_abbrev  0x000000000000d7e1      0x1b0 /usr/local/ps2dev/ee/lib/gcc-lib/ee/3.2.2/libgcc.a(_fpcmp_parts_df.o)
 .debug_abbrev  0x000000000000d991      0x1ca /usr/local/ps2dev/ee/lib/gcc-lib/ee/3.2.2/libgcc.a(_pack_sf.o)

.debug_info     0x0000000000000000    0xfd432
 .debug_info    0x0000000000000000     0x3a2e obj/pad.o
 .debug_info    0x0000000000003a2e     0x57f2 obj/fntsys.o
 .debug_info    0x0000000000009220     0x3e9b obj/renderman.o
 .debug_info    0x000000000000d0bb     0x4fa7 obj/menusys.o
 .debug_info    0x0000000000012062     0x1e50 obj/OSDHistory.o
 .debug_info    0x0000000000013eb2     0x3f23 obj/system.o
 .debug_info    0x0000000000017dd5     0x3514 obj/debug.o
 .debug_info    0x000000000001b2e9     0x3b90 obj/lang.o
 .debug_info    0x000000000001ee79     0x3eb7 obj/config.o
 .debug_info    0x0000000000022d30     0x4682 obj/hdd.o
 .debug_info    0x00000000000273b2     0x4105 obj/dialogs.o
 .debug_info    0x000000000002b4b7     0x541a obj/dia.o
 .debug_info    0x00000000000308d1     0x107d obj/ioman.o
 .debug_info    0x000000000003194e     0x3f7a obj/texcache.o
 .debug_info    0x00000000000358c8     0x5d0b obj/themes.o
 .debug_info    0x000000000003b5d3     0x414e obj/supportbase.o
 .debug_info    0x000000000003f721     0x4b73 obj/usbsupport.o
 .debug_info    0x0000000000044294     0x4c3c obj/ethsupport.o
 .debug_info    0x0000000000048ed0     0x52f0 obj/hddsupport.o
 .debug_info    0x000000000004e1c0     0x4ef6 obj/appsupport.o
 .debug_info    0x00000000000530b6     0x57a9 obj/gui.o
 .debug_info    0x000000000005885f     0x5684 obj/textures.o
 .debug_info    0x000000000005dee3     0x5668 obj/opl.o
 .debug_info    0x000000000006354b     0x16a9 obj/atlas.o
 .debug_info    0x0000000000064bf4     0x19c3 obj/util.o
 .debug_info    0x00000000000665b7      0x917 /usr/local/ps2dev/ee/lib/gcc-lib/ee/3.2.2/../../../../ee/lib/libm.a(s_ceil.o)
 .debug_info    0x0000000000066ece      0x917 /usr/local/ps2dev/ee/lib/gcc-lib/ee/3.2.2/../../../../ee/lib/libm.a(s_floor.o)
 .debug_info    0x00000000000677e5      0x8e6 /usr/local/ps2dev/ee/lib/gcc-lib/ee/3.2.2/../../../../ee/lib/libm.a(w_pow.o)
 .debug_info    0x00000000000680cb      0xddb /usr/local/ps2dev/ee/lib/gcc-lib/ee/3.2.2/../../../../ee/lib/libm.a(e_pow.o)
 .debug_info    0x0000000000068ea6      0x987 /usr/local/ps2dev/ee/lib/gcc-lib/ee/3.2.2/../../../../ee/lib/libm.a(e_sqrt.o)
 .debug_info    0x000000000006982d      0x8cb /usr/local/ps2dev/ee/lib/gcc-lib/ee/3.2.2/../../../../ee/lib/libm.a(s_fabs.o)
 .debug_info    0x000000000006a0f8      0x8ba /usr/local/ps2dev/ee/lib/gcc-lib/ee/3.2.2/../../../../ee/lib/libm.a(s_finite.o)
 .debug_info    0x000000000006a9b2      0x893 /usr/local/ps2dev/ee/lib/gcc-lib/ee/3.2.2/../../../../ee/lib/libm.a(s_infconst.o)
 .debug_info    0x000000000006b245      0x8c6 /usr/local/ps2dev/ee/lib/gcc-lib/ee/3.2.2/../../../../ee/lib/libm.a(s_isnan.o)
 .debug_info    0x000000000006bb0b      0x87e /usr/local/ps2dev/ee/lib/gcc-lib/ee/3.2.2/../../../../ee/lib/libm.a(s_lib_ver.o)
 .debug_info    0x000000000006c389      0x8a1 /usr/local/ps2dev/ee/lib/gcc-lib/ee/3.2.2/../../../../ee/lib/libm.a(s_matherr.o)
 .debug_info    0x000000000006cc2a      0x98c /usr/local/ps2dev/ee/lib/gcc-lib/ee/3.2.2/../../../../ee/lib/libm.a(s_rint.o)
 .debug_info    0x000000000006d5b6      0x96e /usr/local/ps2dev/ee/lib/gcc-lib/ee/3.2.2/../../../../ee/lib/libm.a(s_scalbn.o)
 .debug_info    0x000000000006df24      0x8fa /usr/local/ps2dev/ee/lib/gcc-lib/ee/3.2.2/../../../../ee/lib/libm.a(s_copysign.o)
 .debug_info    0x000000000006e81e     0x3191 /usr/local/ps2dev/ps2sdk/ports/lib/libfreetype.a(ftinit.o)
 .debug_info    0x00000000000719af     0xaddf /usr/local/ps2dev/ps2sdk/ports/lib/libfreetype.a(ftbase.o)
 .debug_info    0x000000000007c78e     0x5bda /usr/local/ps2dev/ps2sdk/ports/lib/libfreetype.a(autohint.o)
 .debug_info    0x0000000000082368     0x5434 /usr/local/ps2dev/ps2sdk/ports/lib/libfreetype.a(bdf.o)
 .debug_info    0x000000000008779c     0xa4e4 /usr/local/ps2dev/ps2sdk/ports/lib/libfreetype.a(cff.o)
 .debug_info    0x0000000000091c80     0x6846 /usr/local/ps2dev/ps2sdk/ports/lib/libfreetype.a(type1cid.o)
 .debug_info    0x00000000000984c6     0x49b9 /usr/local/ps2dev/ps2sdk/ports/lib/libfreetype.a(pcf.o)
 .debug_info    0x000000000009ce7f     0x6068 /usr/local/ps2dev/ps2sdk/ports/lib/libfreetype.a(pfr.o)
 .debug_info    0x00000000000a2ee7     0x70d2 /usr/local/ps2dev/ps2sdk/ports/lib/libfreetype.a(psaux.o)
 .debug_info    0x00000000000a9fb9     0x725c /usr/local/ps2dev/ps2sdk/ports/lib/libfreetype.a(pshinter.o)
 .debug_info    0x00000000000b1215     0x3883 /usr/local/ps2dev/ps2sdk/ports/lib/libfreetype.a(psnames.o)
 .debug_info    0x00000000000b4a98     0x4d76 /usr/local/ps2dev/ps2sdk/ports/lib/libfreetype.a(raster.o)
 .debug_info    0x00000000000b980e     0x9a85 /usr/local/ps2dev/ps2sdk/ports/lib/libfreetype.a(sfnt.o)
 .debug_info    0x00000000000c3293     0x46db /usr/local/ps2dev/ps2sdk/ports/lib/libfreetype.a(smooth.o)
 .debug_info    0x00000000000c796e     0x81d5 /usr/local/ps2dev/ps2sdk/ports/lib/libfreetype.a(truetype.o)
 .debug_info    0x00000000000cfb43     0x7b93 /usr/local/ps2dev/ps2sdk/ports/lib/libfreetype.a(type1.o)
 .debug_info    0x00000000000d76d6     0x66f6 /usr/local/ps2dev/ps2sdk/ports/lib/libfreetype.a(type42.o)
 .debug_info    0x00000000000dddcc     0x3e96 /usr/local/ps2dev/ps2sdk/ports/lib/libfreetype.a(winfnt.o)
 .debug_info    0x00000000000e1c62     0x1f94 /usr/local/ps2dev/ps2sdk/ports/lib/libfreetype.a(ftsystem.o)
 .debug_info    0x00000000000e3bf6     0x37f7 /usr/local/ps2dev/ps2sdk/ports/lib/libfreetype.a(ftglyph.o)
 .debug_info    0x00000000000e73ed     0x4940 /usr/local/ps2dev/ps2sdk/ports/lib/libfreetype.a(ftgzip.o)
 .debug_info    0x00000000000ebd2d     0x3adb /usr/local/ps2dev/ps2sdk/ports/lib/libfreetype.a(ftlzw.o)
 .debug_info    0x00000000000ef808      0x624 /usr/local/ps2dev/ee/lib/gcc-lib/ee/3.2.2/libgcc.a(_muldi3.o)
 .debug_info    0x00000000000efe2c      0x5f5 /usr/local/ps2dev/ee/lib/gcc-lib/ee/3.2.2/libgcc.a(_floatdidf.o)
 .debug_info    0x00000000000f0421      0x5fc /usr/local/ps2dev/ee/lib/gcc-lib/ee/3.2.2/libgcc.a(_floatdisf.o)
 .debug_info    0x00000000000f0a1d      0x606 /usr/local/ps2dev/ee/lib/gcc-lib/ee/3.2.2/libgcc.a(_fixunsdfdi.o)
 .debug_info    0x00000000000f1023      0x5e9 /usr/local/ps2dev/ee/lib/gcc-lib/ee/3.2.2/libgcc.a(_fixdfdi.o)
 .debug_info    0x00000000000f160c      0x5ea /usr/local/ps2dev/ee/lib/gcc-lib/ee/3.2.2/libgcc.a(_fixsfdi.o)
 .debug_info    0x00000000000f1bf6      0xbb7 /usr/local/ps2dev/ee/lib/gcc-lib/ee/3.2.2/libgcc.a(_divdi3.o)
 .debug_info    0x00000000000f27ad      0xbba /usr/local/ps2dev/ee/lib/gcc-lib/ee/3.2.2/libgcc.a(_moddi3.o)
 .debug_info    0x00000000000f3367      0xaeb /usr/local/ps2dev/ee/lib/gcc-lib/ee/3.2.2/libgcc.a(_udivdi3.o)
 .debug_info    0x00000000000f3e52      0xaf8 /usr/local/ps2dev/ee/lib/gcc-lib/ee/3.2.2/libgcc.a(_umoddi3.o)
 .debug_info    0x00000000000f494a      0x6cf /usr/local/ps2dev/ee/lib/gcc-lib/ee/3.2.2/libgcc.a(_sf_to_df.o)
 .debug_info    0x00000000000f5019      0x91b /usr/local/ps2dev/ee/lib/gcc-lib/ee/3.2.2/libgcc.a(_addsub_df.o)
 .debug_info    0x00000000000f5934      0x9a1 /usr/local/ps2dev/ee/lib/gcc-lib/ee/3.2.2/libgcc.a(_mul_df.o)
 .debug_info    0x00000000000f62d5      0x88b /usr/local/ps2dev/ee/lib/gcc-lib/ee/3.2.2/libgcc.a(_div_df.o)
 .debug_info    0x00000000000f6b60      0x6fd /usr/local/ps2dev/ee/lib/gcc-lib/ee/3.2.2/libgcc.a(_compare_df.o)
 .debug_info    0x00000000000f725d      0x6c5 /usr/local/ps2dev/ee/lib/gcc-lib/ee/3.2.2/libgcc.a(_si_to_df.o)
 .debug_info    0x00000000000f7922      0x778 /usr/local/ps2dev/ee/lib/gcc-lib/ee/3.2.2/libgcc.a(_df_to_si.o)
 .debug_info    0x00000000000f809a      0x6f6 /usr/local/ps2dev/ee/lib/gcc-lib/ee/3.2.2/libgcc.a(_make_df.o)
 .debug_info    0x00000000000f8790      0x6ef /usr/local/ps2dev/ee/lib/gcc-lib/ee/3.2.2/libgcc.a(_df_to_sf.o)
 .debug_info    0x00000000000f8e7f      0x686 /usr/local/ps2dev/ee/lib/gcc-lib/ee/3.2.2/libgcc.a(_thenan_df.o)
 .debug_info    0x00000000000f9505      0x76a /usr/local/ps2dev/ee/lib/gcc-lib/ee/3.2.2/libgcc.a(_df_to_usi.o)
 .debug_info    0x00000000000f9c6f      0x5e2 /usr/local/ps2dev/ee/lib/gcc-lib/ee/3.2.2/libgcc.a(_clz.o)
 .debug_info    0x00000000000fa251      0x61c /usr/local/ps2dev/ee/lib/gcc-lib/ee/3.2.2/libgcc.a(_fixunssfdi.o)
 .debug_info    0x00000000000fa86d      0x6e4 /usr/local/ps2dev/ee/lib/gcc-lib/ee/3.2.2/libgcc.a(_unpack_sf.o)
 .debug_info    0x00000000000faf51      0x6ea /usr/local/ps2dev/ee/lib/gcc-lib/ee/3.2.2/libgcc.a(_make_sf.o)
 .debug_info    0x00000000000fb63b      0x791 /usr/local/ps2dev/ee/lib/gcc-lib/ee/3.2.2/libgcc.a(_pack_df.o)
 .debug_info    0x00000000000fbdcc      0x6ee /usr/local/ps2dev/ee/lib/gcc-lib/ee/3.2.2/libgcc.a(_unpack_df.o)
 .debug_info    0x00000000000fc4ba      0x7f3 /usr/local/ps2dev/ee/lib/gcc-lib/ee/3.2.2/libgcc.a(_fpcmp_parts_df.o)
 .debug_info    0x00000000000fccad      0x785 /usr/local/ps2dev/ee/lib/gcc-lib/ee/3.2.2/libgcc.a(_pack_sf.o)

.debug_line     0x0000000000000000    0x555fe
 .debug_line    0x0000000000000000      0xac3 obj/pad.o
 .debug_line    0x0000000000000ac3     0x10e9 obj/fntsys.o
 .debug_line    0x0000000000001bac     0x100d obj/renderman.o
 .debug_line    0x0000000000002bb9     0x1273 obj/menusys.o
 .debug_line    0x0000000000003e2c      0x713 obj/OSDHistory.o
 .debug_line    0x000000000000453f      0xe8b obj/system.o
 .debug_line    0x00000000000053ca      0x37c obj/debug.o
 .debug_line    0x0000000000005746      0x71f obj/lang.o
 .debug_line    0x0000000000005e65      0xdbf obj/config.o
 .debug_line    0x0000000000006c24     0x11cb obj/hdd.o
 .debug_line    0x0000000000007def      0x321 obj/dialogs.o
 .debug_line    0x0000000000008110     0x1797 obj/dia.o
 .debug_line    0x00000000000098a7      0x91f obj/ioman.o
 .debug_line    0x000000000000a1c6      0x759 obj/texcache.o
 .debug_line    0x000000000000a91f     0x2277 obj/themes.o
 .debug_line    0x000000000000cb96      0xb08 obj/supportbase.o
 .debug_line    0x000000000000d69e      0xb38 obj/usbsupport.o
 .debug_line    0x000000000000e1d6      0xd2e obj/ethsupport.o
 .debug_line    0x000000000000ef04      0xbc1 obj/hddsupport.o
 .debug_line    0x000000000000fac5      0x753 obj/appsupport.o
 .debug_line    0x0000000000010218     0x2196 obj/gui.o
 .debug_line    0x00000000000123ae      0x8dd obj/textures.o
 .debug_line    0x0000000000012c8b     0x1bb5 obj/opl.o
 .debug_line    0x0000000000014840      0x67f obj/atlas.o
 .debug_line    0x0000000000014ebf      0xa07 obj/util.o
 .debug_line    0x00000000000158c6      0x243 /usr/local/ps2dev/ee/lib/gcc-lib/ee/3.2.2/../../../../ee/lib/libm.a(s_ceil.o)
 .debug_line    0x0000000000015b09      0x24c /usr/local/ps2dev/ee/lib/gcc-lib/ee/3.2.2/../../../../ee/lib/libm.a(s_floor.o)
 .debug_line    0x0000000000015d55      0x429 /usr/local/ps2dev/ee/lib/gcc-lib/ee/3.2.2/../../../../ee/lib/libm.a(w_pow.o)
 .debug_line    0x000000000001617e      0x903 /usr/local/ps2dev/ee/lib/gcc-lib/ee/3.2.2/../../../../ee/lib/libm.a(e_pow.o)
 .debug_line    0x0000000000016a81      0x405 /usr/local/ps2dev/ee/lib/gcc-lib/ee/3.2.2/../../../../ee/lib/libm.a(e_sqrt.o)
 .debug_line    0x0000000000016e86      0x139 /usr/local/ps2dev/ee/lib/gcc-lib/ee/3.2.2/../../../../ee/lib/libm.a(s_fabs.o)
 .debug_line    0x0000000000016fbf      0x11b /usr/local/ps2dev/ee/lib/gcc-lib/ee/3.2.2/../../../../ee/lib/libm.a(s_finite.o)
 .debug_line    0x00000000000170da      0x115 /usr/local/ps2dev/ee/lib/gcc-lib/ee/3.2.2/../../../../ee/lib/libm.a(s_infconst.o)
 .debug_line    0x00000000000171ef      0x162 /usr/local/ps2dev/ee/lib/gcc-lib/ee/3.2.2/../../../../ee/lib/libm.a(s_isnan.o)
 .debug_line    0x0000000000017351       0xf4 /usr/local/ps2dev/ee/lib/gcc-lib/ee/3.2.2/../../../../ee/lib/libm.a(s_lib_ver.o)
 .debug_line    0x0000000000017445      0x11c /usr/local/ps2dev/ee/lib/gcc-lib/ee/3.2.2/../../../../ee/lib/libm.a(s_matherr.o)
 .debug_line    0x0000000000017561      0x32b /usr/local/ps2dev/ee/lib/gcc-lib/ee/3.2.2/../../../../ee/lib/libm.a(s_rint.o)
 .debug_line    0x000000000001788c      0x205 /usr/local/ps2dev/ee/lib/gcc-lib/ee/3.2.2/../../../../ee/lib/libm.a(s_scalbn.o)
 .debug_line    0x0000000000017a91      0x125 /usr/local/ps2dev/ee/lib/gcc-lib/ee/3.2.2/../../../../ee/lib/libm.a(s_copysign.o)
 .debug_line    0x0000000000017bb6      0x35e /usr/local/ps2dev/ps2sdk/ports/lib/libfreetype.a(ftinit.o)
 .debug_line    0x0000000000017f14     0x6510 /usr/local/ps2dev/ps2sdk/ports/lib/libfreetype.a(ftbase.o)
 .debug_line    0x000000000001e424     0x3d67 /usr/local/ps2dev/ps2sdk/ports/lib/libfreetype.a(autohint.o)
 .debug_line    0x000000000002218b     0x3320 /usr/local/ps2dev/ps2sdk/ports/lib/libfreetype.a(bdf.o)
 .debug_line    0x00000000000254ab     0x5797 /usr/local/ps2dev/ps2sdk/ports/lib/libfreetype.a(cff.o)
 .debug_line    0x000000000002ac42     0x1c23 /usr/local/ps2dev/ps2sdk/ports/lib/libfreetype.a(type1cid.o)
 .debug_line    0x000000000002c865     0x1b1d /usr/local/ps2dev/ps2sdk/ports/lib/libfreetype.a(pcf.o)
 .debug_line    0x000000000002e382     0x3789 /usr/local/ps2dev/ps2sdk/ports/lib/libfreetype.a(pfr.o)
 .debug_line    0x0000000000031b0b     0x2e29 /usr/local/ps2dev/ps2sdk/ports/lib/libfreetype.a(psaux.o)
 .debug_line    0x0000000000034934     0x391f /usr/local/ps2dev/ps2sdk/ports/lib/libfreetype.a(pshinter.o)
 .debug_line    0x0000000000038253      0x6e9 /usr/local/ps2dev/ps2sdk/ports/lib/libfreetype.a(psnames.o)
 .debug_line    0x000000000003893c     0x2c26 /usr/local/ps2dev/ps2sdk/ports/lib/libfreetype.a(raster.o)
 .debug_line    0x000000000003b562     0x535e /usr/local/ps2dev/ps2sdk/ports/lib/libfreetype.a(sfnt.o)
 .debug_line    0x00000000000408c0     0x26e2 /usr/local/ps2dev/ps2sdk/ports/lib/libfreetype.a(smooth.o)
 .debug_line    0x0000000000042fa2     0x4111 /usr/local/ps2dev/ps2sdk/ports/lib/libfreetype.a(truetype.o)
 .debug_line    0x00000000000470b3     0x3efd /usr/local/ps2dev/ps2sdk/ports/lib/libfreetype.a(type1.o)
 .debug_line    0x000000000004afb0     0x1dd0 /usr/local/ps2dev/ps2sdk/ports/lib/libfreetype.a(type42.o)
 .debug_line    0x000000000004cd80      0xc2e /usr/local/ps2dev/ps2sdk/ports/lib/libfreetype.a(winfnt.o)
 .debug_line    0x000000000004d9ae      0x3f6 /usr/local/ps2dev/ps2sdk/ports/lib/libfreetype.a(ftsystem.o)
 .debug_line    0x000000000004dda4      0xc3d /usr/local/ps2dev/ps2sdk/ports/lib/libfreetype.a(ftglyph.o)
 .debug_line    0x000000000004e9e1     0x24bd /usr/local/ps2dev/ps2sdk/ports/lib/libfreetype.a(ftgzip.o)
 .debug_line    0x0000000000050e9e     0x11d9 /usr/local/ps2dev/ps2sdk/ports/lib/libfreetype.a(ftlzw.o)
 .debug_line    0x0000000000052077      0x128 /usr/local/ps2dev/ee/lib/gcc-lib/ee/3.2.2/libgcc.a(_muldi3.o)
 .debug_line    0x000000000005219f      0x120 /usr/local/ps2dev/ee/lib/gcc-lib/ee/3.2.2/libgcc.a(_floatdidf.o)
 .debug_line    0x00000000000522bf      0x196 /usr/local/ps2dev/ee/lib/gcc-lib/ee/3.2.2/libgcc.a(_floatdisf.o)
 .debug_line    0x0000000000052455      0x150 /usr/local/ps2dev/ee/lib/gcc-lib/ee/3.2.2/libgcc.a(_fixunsdfdi.o)
 .debug_line    0x00000000000525a5      0x110 /usr/local/ps2dev/ee/lib/gcc-lib/ee/3.2.2/libgcc.a(_fixdfdi.o)
 .debug_line    0x00000000000526b5      0x110 /usr/local/ps2dev/ee/lib/gcc-lib/ee/3.2.2/libgcc.a(_fixsfdi.o)
 .debug_line    0x00000000000527c5      0x4a5 /usr/local/ps2dev/ee/lib/gcc-lib/ee/3.2.2/libgcc.a(_divdi3.o)
 .debug_line    0x0000000000052c6a      0x4a7 /usr/local/ps2dev/ee/lib/gcc-lib/ee/3.2.2/libgcc.a(_moddi3.o)
 .debug_line    0x0000000000053111      0x3a0 /usr/local/ps2dev/ee/lib/gcc-lib/ee/3.2.2/libgcc.a(_udivdi3.o)
 .debug_line    0x00000000000534b1      0x3b0 /usr/local/ps2dev/ee/lib/gcc-lib/ee/3.2.2/libgcc.a(_umoddi3.o)
 .debug_line    0x0000000000053861       0xae /usr/local/ps2dev/ee/lib/gcc-lib/ee/3.2.2/libgcc.a(_sf_to_df.o)
 .debug_line    0x000000000005390f      0x387 /usr/local/ps2dev/ee/lib/gcc-lib/ee/3.2.2/libgcc.a(_addsub_df.o)
 .debug_line    0x0000000000053c96      0x407 /usr/local/ps2dev/ee/lib/gcc-lib/ee/3.2.2/libgcc.a(_mul_df.o)
 .debug_line    0x000000000005409d      0x28f /usr/local/ps2dev/ee/lib/gcc-lib/ee/3.2.2/libgcc.a(_div_df.o)
 .debug_line    0x000000000005432c       0xc6 /usr/local/ps2dev/ee/lib/gcc-lib/ee/3.2.2/libgcc.a(_compare_df.o)
 .debug_line    0x00000000000543f2      0x110 /usr/local/ps2dev/ee/lib/gcc-lib/ee/3.2.2/libgcc.a(_si_to_df.o)
 .debug_line    0x0000000000054502      0x136 /usr/local/ps2dev/ee/lib/gcc-lib/ee/3.2.2/libgcc.a(_df_to_si.o)
 .debug_line    0x0000000000054638       0xbe /usr/local/ps2dev/ee/lib/gcc-lib/ee/3.2.2/libgcc.a(_make_df.o)
 .debug_line    0x00000000000546f6       0xee /usr/local/ps2dev/ee/lib/gcc-lib/ee/3.2.2/libgcc.a(_df_to_sf.o)
 .debug_line    0x00000000000547e4       0x83 /usr/local/ps2dev/ee/lib/gcc-lib/ee/3.2.2/libgcc.a(_thenan_df.o)
 .debug_line    0x0000000000054867      0x134 /usr/local/ps2dev/ee/lib/gcc-lib/ee/3.2.2/libgcc.a(_df_to_usi.o)
 .debug_line    0x000000000005499b       0xd5 /usr/local/ps2dev/ee/lib/gcc-lib/ee/3.2.2/libgcc.a(_clz.o)
 .debug_line    0x0000000000054a70      0x158 /usr/local/ps2dev/ee/lib/gcc-lib/ee/3.2.2/libgcc.a(_fixunssfdi.o)
 .debug_line    0x0000000000054bc8      0x1a6 /usr/local/ps2dev/ee/lib/gcc-lib/ee/3.2.2/libgcc.a(_unpack_sf.o)
 .debug_line    0x0000000000054d6e       0xbe /usr/local/ps2dev/ee/lib/gcc-lib/ee/3.2.2/libgcc.a(_make_sf.o)
 .debug_line    0x0000000000054e2c      0x232 /usr/local/ps2dev/ee/lib/gcc-lib/ee/3.2.2/libgcc.a(_pack_df.o)
 .debug_line    0x000000000005505e      0x19e /usr/local/ps2dev/ee/lib/gcc-lib/ee/3.2.2/libgcc.a(_unpack_df.o)
 .debug_line    0x00000000000551fc      0x1b0 /usr/local/ps2dev/ee/lib/gcc-lib/ee/3.2.2/libgcc.a(_fpcmp_parts_df.o)
 .debug_line    0x00000000000553ac      0x252 /usr/local/ps2dev/ee/lib/gcc-lib/ee/3.2.2/libgcc.a(_pack_sf.o)

.debug_frame    0x0000000000000000     0xc4dc
 .debug_frame   0x0000000000000000      0x1dc obj/pad.o
 .debug_frame   0x00000000000001dc      0x2d4 obj/fntsys.o
 .debug_frame   0x00000000000004b0      0x348 obj/renderman.o
 .debug_frame   0x00000000000007f8      0x418 obj/menusys.o
 .debug_frame   0x0000000000000c10      0x118 obj/OSDHistory.o
 .debug_frame   0x0000000000000d28      0x1f4 obj/system.o
 .debug_frame   0x0000000000000f1c       0x2c obj/debug.o
 .debug_frame   0x0000000000000f48      0x154 obj/lang.o
 .debug_frame   0x000000000000109c      0x3d8 obj/config.o
 .debug_frame   0x0000000000001474      0x344 obj/hdd.o
 .debug_frame   0x00000000000017b8       0x10 obj/dialogs.o
 .debug_frame   0x00000000000017c8      0x418 obj/dia.o
 .debug_frame   0x0000000000001be0      0x1c0 obj/ioman.o
 .debug_frame   0x0000000000001da0       0xf8 obj/texcache.o
 .debug_frame   0x0000000000001e98      0x6fc obj/themes.o
 .debug_frame   0x0000000000002594      0x1c4 obj/supportbase.o
 .debug_frame   0x0000000000002758      0x1ec obj/usbsupport.o
 .debug_frame   0x0000000000002944      0x218 obj/ethsupport.o
 .debug_frame   0x0000000000002b5c      0x1e4 obj/hddsupport.o
 .debug_frame   0x0000000000002d40      0x1bc obj/appsupport.o
 .debug_frame   0x0000000000002efc      0x590 obj/gui.o
 .debug_frame   0x000000000000348c      0x178 obj/textures.o
 .debug_frame   0x0000000000003604      0x41c obj/opl.o
 .debug_frame   0x0000000000003a20      0x120 obj/atlas.o
 .debug_frame   0x0000000000003b40      0x250 obj/util.o
 .debug_frame   0x0000000000003d90       0x38 /usr/local/ps2dev/ee/lib/gcc-lib/ee/3.2.2/../../../../ee/lib/libm.a(s_ceil.o)
 .debug_frame   0x0000000000003dc8       0x38 /usr/local/ps2dev/ee/lib/gcc-lib/ee/3.2.2/../../../../ee/lib/libm.a(s_floor.o)
 .debug_frame   0x0000000000003e00       0x3c /usr/local/ps2dev/ee/lib/gcc-lib/ee/3.2.2/../../../../ee/lib/libm.a(w_pow.o)
 .debug_frame   0x0000000000003e3c       0x48 /usr/local/ps2dev/ee/lib/gcc-lib/ee/3.2.2/../../../../ee/lib/libm.a(e_pow.o)
 .debug_frame   0x0000000000003e84       0x3c /usr/local/ps2dev/ee/lib/gcc-lib/ee/3.2.2/../../../../ee/lib/libm.a(e_sqrt.o)
 .debug_frame   0x0000000000003ec0       0x20 /usr/local/ps2dev/ee/lib/gcc-lib/ee/3.2.2/../../../../ee/lib/libm.a(s_fabs.o)
 .debug_frame   0x0000000000003ee0       0x20 /usr/local/ps2dev/ee/lib/gcc-lib/ee/3.2.2/../../../../ee/lib/libm.a(s_finite.o)
 .debug_frame   0x0000000000003f00       0x10 /usr/local/ps2dev/ee/lib/gcc-lib/ee/3.2.2/../../../../ee/lib/libm.a(s_infconst.o)
 .debug_frame   0x0000000000003f10       0x20 /usr/local/ps2dev/ee/lib/gcc-lib/ee/3.2.2/../../../../ee/lib/libm.a(s_isnan.o)
 .debug_frame   0x0000000000003f30       0x10 /usr/local/ps2dev/ee/lib/gcc-lib/ee/3.2.2/../../../../ee/lib/libm.a(s_lib_ver.o)
 .debug_frame   0x0000000000003f40       0x28 /usr/local/ps2dev/ee/lib/gcc-lib/ee/3.2.2/../../../../ee/lib/libm.a(s_matherr.o)
 .debug_frame   0x0000000000003f68       0x34 /usr/local/ps2dev/ee/lib/gcc-lib/ee/3.2.2/../../../../ee/lib/libm.a(s_rint.o)
 .debug_frame   0x0000000000003f9c       0x30 /usr/local/ps2dev/ee/lib/gcc-lib/ee/3.2.2/../../../../ee/lib/libm.a(s_scalbn.o)
 .debug_frame   0x0000000000003fcc       0x20 /usr/local/ps2dev/ee/lib/gcc-lib/ee/3.2.2/../../../../ee/lib/libm.a(s_copysign.o)
 .debug_frame   0x0000000000003fec       0x6c /usr/local/ps2dev/ps2sdk/ports/lib/libfreetype.a(ftinit.o)
 .debug_frame   0x0000000000004058     0x16c8 /usr/local/ps2dev/ps2sdk/ports/lib/libfreetype.a(ftbase.o)
 .debug_frame   0x0000000000005720      0x694 /usr/local/ps2dev/ps2sdk/ports/lib/libfreetype.a(autohint.o)
 .debug_frame   0x0000000000005db4      0x584 /usr/local/ps2dev/ps2sdk/ports/lib/libfreetype.a(bdf.o)
 .debug_frame   0x0000000000006338      0x984 /usr/local/ps2dev/ps2sdk/ports/lib/libfreetype.a(cff.o)
 .debug_frame   0x0000000000006cbc      0x3a8 /usr/local/ps2dev/ps2sdk/ports/lib/libfreetype.a(type1cid.o)
 .debug_frame   0x0000000000007064      0x384 /usr/local/ps2dev/ps2sdk/ports/lib/libfreetype.a(pcf.o)
 .debug_frame   0x00000000000073e8      0x64c /usr/local/ps2dev/ps2sdk/ports/lib/libfreetype.a(pfr.o)
 .debug_frame   0x0000000000007a34      0x7a8 /usr/local/ps2dev/ps2sdk/ports/lib/libfreetype.a(psaux.o)
 .debug_frame   0x00000000000081dc      0xa18 /usr/local/ps2dev/ps2sdk/ports/lib/libfreetype.a(pshinter.o)
 .debug_frame   0x0000000000008bf4       0xd8 /usr/local/ps2dev/ps2sdk/ports/lib/libfreetype.a(psnames.o)
 .debug_frame   0x0000000000008ccc      0x4f0 /usr/local/ps2dev/ps2sdk/ports/lib/libfreetype.a(raster.o)
 .debug_frame   0x00000000000091bc      0xb90 /usr/local/ps2dev/ps2sdk/ports/lib/libfreetype.a(sfnt.o)
 .debug_frame   0x0000000000009d4c      0x488 /usr/local/ps2dev/ps2sdk/ports/lib/libfreetype.a(smooth.o)
 .debug_frame   0x000000000000a1d4      0x688 /usr/local/ps2dev/ps2sdk/ports/lib/libfreetype.a(truetype.o)
 .debug_frame   0x000000000000a85c      0x7d0 /usr/local/ps2dev/ps2sdk/ports/lib/libfreetype.a(type1.o)
 .debug_frame   0x000000000000b02c      0x418 /usr/local/ps2dev/ps2sdk/ports/lib/libfreetype.a(type42.o)
 .debug_frame   0x000000000000b444      0x168 /usr/local/ps2dev/ps2sdk/ports/lib/libfreetype.a(winfnt.o)
 .debug_frame   0x000000000000b5ac       0xec /usr/local/ps2dev/ps2sdk/ports/lib/libfreetype.a(ftsystem.o)
 .debug_frame   0x000000000000b698      0x298 /usr/local/ps2dev/ps2sdk/ports/lib/libfreetype.a(ftglyph.o)
 .debug_frame   0x000000000000b930      0x488 /usr/local/ps2dev/ps2sdk/ports/lib/libfreetype.a(ftgzip.o)
 .debug_frame   0x000000000000bdb8      0x1f8 /usr/local/ps2dev/ps2sdk/ports/lib/libfreetype.a(ftlzw.o)
 .debug_frame   0x000000000000bfb0       0x20 /usr/local/ps2dev/ee/lib/gcc-lib/ee/3.2.2/libgcc.a(_muldi3.o)
 .debug_frame   0x000000000000bfd0       0x34 /usr/local/ps2dev/ee/lib/gcc-lib/ee/3.2.2/libgcc.a(_floatdidf.o)
 .debug_frame   0x000000000000c004       0x34 /usr/local/ps2dev/ee/lib/gcc-lib/ee/3.2.2/libgcc.a(_floatdisf.o)
 .debug_frame   0x000000000000c038       0x34 /usr/local/ps2dev/ee/lib/gcc-lib/ee/3.2.2/libgcc.a(_fixunsdfdi.o)
 .debug_frame   0x000000000000c06c       0x30 /usr/local/ps2dev/ee/lib/gcc-lib/ee/3.2.2/libgcc.a(_fixdfdi.o)
 .debug_frame   0x000000000000c09c       0x28 /usr/local/ps2dev/ee/lib/gcc-lib/ee/3.2.2/libgcc.a(_fixsfdi.o)
 .debug_frame   0x000000000000c0c4       0x48 /usr/local/ps2dev/ee/lib/gcc-lib/ee/3.2.2/libgcc.a(_divdi3.o)
 .debug_frame   0x000000000000c10c       0x48 /usr/local/ps2dev/ee/lib/gcc-lib/ee/3.2.2/libgcc.a(_moddi3.o)
 .debug_frame   0x000000000000c154       0x40 /usr/local/ps2dev/ee/lib/gcc-lib/ee/3.2.2/libgcc.a(_udivdi3.o)
 .debug_frame   0x000000000000c194       0x40 /usr/local/ps2dev/ee/lib/gcc-lib/ee/3.2.2/libgcc.a(_umoddi3.o)
 .debug_frame   0x000000000000c1d4       0x28 /usr/local/ps2dev/ee/lib/gcc-lib/ee/3.2.2/libgcc.a(_sf_to_df.o)
 .debug_frame   0x000000000000c1fc       0x58 /usr/local/ps2dev/ee/lib/gcc-lib/ee/3.2.2/libgcc.a(_addsub_df.o)
 .debug_frame   0x000000000000c254       0x3c /usr/local/ps2dev/ee/lib/gcc-lib/ee/3.2.2/libgcc.a(_mul_df.o)
 .debug_frame   0x000000000000c290       0x3c /usr/local/ps2dev/ee/lib/gcc-lib/ee/3.2.2/libgcc.a(_div_df.o)
 .debug_frame   0x000000000000c2cc       0x2c /usr/local/ps2dev/ee/lib/gcc-lib/ee/3.2.2/libgcc.a(_compare_df.o)
 .debug_frame   0x000000000000c2f8       0x28 /usr/local/ps2dev/ee/lib/gcc-lib/ee/3.2.2/libgcc.a(_si_to_df.o)
 .debug_frame   0x000000000000c320       0x28 /usr/local/ps2dev/ee/lib/gcc-lib/ee/3.2.2/libgcc.a(_df_to_si.o)
 .debug_frame   0x000000000000c348       0x28 /usr/local/ps2dev/ee/lib/gcc-lib/ee/3.2.2/libgcc.a(_make_df.o)
 .debug_frame   0x000000000000c370       0x28 /usr/local/ps2dev/ee/lib/gcc-lib/ee/3.2.2/libgcc.a(_df_to_sf.o)
 .debug_frame   0x000000000000c398       0x10 /usr/local/ps2dev/ee/lib/gcc-lib/ee/3.2.2/libgcc.a(_thenan_df.o)
 .debug_frame   0x000000000000c3a8       0x28 /usr/local/ps2dev/ee/lib/gcc-lib/ee/3.2.2/libgcc.a(_df_to_usi.o)
 .debug_frame   0x000000000000c3d0       0x10 /usr/local/ps2dev/ee/lib/gcc-lib/ee/3.2.2/libgcc.a(_clz.o)
 .debug_frame   0x000000000000c3e0       0x34 /usr/local/ps2dev/ee/lib/gcc-lib/ee/3.2.2/libgcc.a(_fixunssfdi.o)
 .debug_frame   0x000000000000c414       0x20 /usr/local/ps2dev/ee/lib/gcc-lib/ee/3.2.2/libgcc.a(_unpack_sf.o)
 .debug_frame   0x000000000000c434       0x28 /usr/local/ps2dev/ee/lib/gcc-lib/ee/3.2.2/libgcc.a(_make_sf.o)
 .debug_frame   0x000000000000c45c       0x20 /usr/local/ps2dev/ee/lib/gcc-lib/ee/3.2.2/libgcc.a(_pack_df.o)
 .debug_frame   0x000000000000c47c       0x20 /usr/local/ps2dev/ee/lib/gcc-lib/ee/3.2.2/libgcc.a(_unpack_df.o)
 .debug_frame   0x000000000000c49c       0x20 /usr/local/ps2dev/ee/lib/gcc-lib/ee/3.2.2/libgcc.a(_fpcmp_parts_df.o)
 .debug_frame   0x000000000000c4bc       0x20 /usr/local/ps2dev/ee/lib/gcc-lib/ee/3.2.2/libgcc.a(_pack_sf.o)

.debug_pubnames
                0x0000000000000000     0x69e5
 .debug_pubnames
                0x0000000000000000      0x37f obj/pad.o
 .debug_pubnames
                0x000000000000037f      0x3cf obj/fntsys.o
 .debug_pubnames
                0x000000000000074e      0x4e2 obj/renderman.o
 .debug_pubnames
                0x0000000000000c30      0x50e obj/menusys.o
 .debug_pubnames
                0x000000000000113e       0xa8 obj/OSDHistory.o
 .debug_pubnames
                0x00000000000011e6      0x3b8 obj/system.o
 .debug_pubnames
                0x000000000000159e      0x2de obj/debug.o
 .debug_pubnames
                0x000000000000187c      0x342 obj/lang.o
 .debug_pubnames
                0x0000000000001bbe      0x44c obj/config.o
 .debug_pubnames
                0x000000000000200a      0x394 obj/hdd.o
 .debug_pubnames
                0x000000000000239e      0x33f obj/dialogs.o
 .debug_pubnames
                0x00000000000026dd      0x42d obj/dia.o
 .debug_pubnames
                0x0000000000002b0a       0xb5 obj/ioman.o
 .debug_pubnames
                0x0000000000002bbf      0x348 obj/texcache.o
 .debug_pubnames
                0x0000000000002f07      0x414 obj/themes.o
 .debug_pubnames
                0x000000000000331b      0x328 obj/supportbase.o
 .debug_pubnames
                0x0000000000003643      0x35f obj/usbsupport.o
 .debug_pubnames
                0x00000000000039a2      0x33f obj/ethsupport.o
 .debug_pubnames
                0x0000000000003ce1      0x337 obj/hddsupport.o
 .debug_pubnames
                0x0000000000004018      0x318 obj/appsupport.o
 .debug_pubnames
                0x0000000000004330      0x593 obj/gui.o
 .debug_pubnames
                0x00000000000048c3      0x30c obj/textures.o
 .debug_pubnames
                0x0000000000004bcf      0x40d obj/opl.o
 .debug_pubnames
                0x0000000000004fdc       0x3c obj/atlas.o
 .debug_pubnames
                0x0000000000005018      0x119 obj/util.o
 .debug_pubnames
                0x0000000000005131       0x1b /usr/local/ps2dev/ee/lib/gcc-lib/ee/3.2.2/../../../../ee/lib/libm.a(s_ceil.o)
 .debug_pubnames
                0x000000000000514c       0x1c /usr/local/ps2dev/ee/lib/gcc-lib/ee/3.2.2/../../../../ee/lib/libm.a(s_floor.o)
 .debug_pubnames
                0x0000000000005168       0x1a /usr/local/ps2dev/ee/lib/gcc-lib/ee/3.2.2/../../../../ee/lib/libm.a(w_pow.o)
 .debug_pubnames
                0x0000000000005182       0x24 /usr/local/ps2dev/ee/lib/gcc-lib/ee/3.2.2/../../../../ee/lib/libm.a(e_pow.o)
 .debug_pubnames
                0x00000000000051a6       0x25 /usr/local/ps2dev/ee/lib/gcc-lib/ee/3.2.2/../../../../ee/lib/libm.a(e_sqrt.o)
 .debug_pubnames
                0x00000000000051cb       0x1b /usr/local/ps2dev/ee/lib/gcc-lib/ee/3.2.2/../../../../ee/lib/libm.a(s_fabs.o)
 .debug_pubnames
                0x00000000000051e6       0x1d /usr/local/ps2dev/ee/lib/gcc-lib/ee/3.2.2/../../../../ee/lib/libm.a(s_finite.o)
 .debug_pubnames
                0x0000000000005203       0x21 /usr/local/ps2dev/ee/lib/gcc-lib/ee/3.2.2/../../../../ee/lib/libm.a(s_infconst.o)
 .debug_pubnames
                0x0000000000005224       0x1c /usr/local/ps2dev/ee/lib/gcc-lib/ee/3.2.2/../../../../ee/lib/libm.a(s_isnan.o)
 .debug_pubnames
                0x0000000000005240       0x26 /usr/local/ps2dev/ee/lib/gcc-lib/ee/3.2.2/../../../../ee/lib/libm.a(s_lib_ver.o)
 .debug_pubnames
                0x0000000000005266       0x1e /usr/local/ps2dev/ee/lib/gcc-lib/ee/3.2.2/../../../../ee/lib/libm.a(s_matherr.o)
 .debug_pubnames
                0x0000000000005284       0x1b /usr/local/ps2dev/ee/lib/gcc-lib/ee/3.2.2/../../../../ee/lib/libm.a(s_rint.o)
 .debug_pubnames
                0x000000000000529f       0x1d /usr/local/ps2dev/ee/lib/gcc-lib/ee/3.2.2/../../../../ee/lib/libm.a(s_scalbn.o)
 .debug_pubnames
                0x00000000000052bc       0x1f /usr/local/ps2dev/ee/lib/gcc-lib/ee/3.2.2/../../../../ee/lib/libm.a(s_copysign.o)
 .debug_pubnames
                0x00000000000052db       0x57 /usr/local/ps2dev/ps2sdk/ports/lib/libfreetype.a(ftinit.o)
 .debug_pubnames
                0x0000000000005332      0xbf0 /usr/local/ps2dev/ps2sdk/ports/lib/libfreetype.a(ftbase.o)
 .debug_pubnames
                0x0000000000005f22       0x54 /usr/local/ps2dev/ps2sdk/ports/lib/libfreetype.a(autohint.o)
 .debug_pubnames
                0x0000000000005f76       0x3a /usr/local/ps2dev/ps2sdk/ports/lib/libfreetype.a(bdf.o)
 .debug_pubnames
                0x0000000000005fb0       0x66 /usr/local/ps2dev/ps2sdk/ports/lib/libfreetype.a(cff.o)
 .debug_pubnames
                0x0000000000006016       0x29 /usr/local/ps2dev/ps2sdk/ports/lib/libfreetype.a(type1cid.o)
 .debug_pubnames
                0x000000000000603f       0x3a /usr/local/ps2dev/ps2sdk/ports/lib/libfreetype.a(pcf.o)
 .debug_pubnames
                0x0000000000006079       0x5a /usr/local/ps2dev/ps2sdk/ports/lib/libfreetype.a(pfr.o)
 .debug_pubnames
                0x00000000000060d3      0x105 /usr/local/ps2dev/ps2sdk/ports/lib/libfreetype.a(psaux.o)
 .debug_pubnames
                0x00000000000061d8       0x3f /usr/local/ps2dev/ps2sdk/ports/lib/libfreetype.a(pshinter.o)
 .debug_pubnames
                0x0000000000006217       0x2b /usr/local/ps2dev/ps2sdk/ports/lib/libfreetype.a(psnames.o)
 .debug_pubnames
                0x0000000000006242       0x65 /usr/local/ps2dev/ps2sdk/ports/lib/libfreetype.a(raster.o)
 .debug_pubnames
                0x00000000000062a7       0xe3 /usr/local/ps2dev/ps2sdk/ports/lib/libfreetype.a(sfnt.o)
 .debug_pubnames
                0x000000000000638a       0x9d /usr/local/ps2dev/ps2sdk/ports/lib/libfreetype.a(smooth.o)
 .debug_pubnames
                0x0000000000006427       0x26 /usr/local/ps2dev/ps2sdk/ports/lib/libfreetype.a(truetype.o)
 .debug_pubnames
                0x000000000000644d       0x26 /usr/local/ps2dev/ps2sdk/ports/lib/libfreetype.a(type1.o)
 .debug_pubnames
                0x0000000000006473       0x27 /usr/local/ps2dev/ps2sdk/ports/lib/libfreetype.a(type42.o)
 .debug_pubnames
                0x000000000000649a       0x2a /usr/local/ps2dev/ps2sdk/ports/lib/libfreetype.a(winfnt.o)
 .debug_pubnames
                0x00000000000064c4       0x4a /usr/local/ps2dev/ps2sdk/ports/lib/libfreetype.a(ftsystem.o)
 .debug_pubnames
                0x000000000000650e       0xec /usr/local/ps2dev/ps2sdk/ports/lib/libfreetype.a(ftglyph.o)
 .debug_pubnames
                0x00000000000065fa       0x29 /usr/local/ps2dev/ps2sdk/ports/lib/libfreetype.a(ftgzip.o)
 .debug_pubnames
                0x0000000000006623       0x28 /usr/local/ps2dev/ps2sdk/ports/lib/libfreetype.a(ftlzw.o)
 .debug_pubnames
                0x000000000000664b       0x1f /usr/local/ps2dev/ee/lib/gcc-lib/ee/3.2.2/libgcc.a(_muldi3.o)
 .debug_pubnames
                0x000000000000666a       0x22 /usr/local/ps2dev/ee/lib/gcc-lib/ee/3.2.2/libgcc.a(_floatdidf.o)
 .debug_pubnames
                0x000000000000668c       0x22 /usr/local/ps2dev/ee/lib/gcc-lib/ee/3.2.2/libgcc.a(_floatdisf.o)
 .debug_pubnames
                0x00000000000066ae       0x23 /usr/local/ps2dev/ee/lib/gcc-lib/ee/3.2.2/libgcc.a(_fixunsdfdi.o)
 .debug_pubnames
                0x00000000000066d1       0x20 /usr/local/ps2dev/ee/lib/gcc-lib/ee/3.2.2/libgcc.a(_fixdfdi.o)
 .debug_pubnames
                0x00000000000066f1       0x20 /usr/local/ps2dev/ee/lib/gcc-lib/ee/3.2.2/libgcc.a(_fixsfdi.o)
 .debug_pubnames
                0x0000000000006711       0x1f /usr/local/ps2dev/ee/lib/gcc-lib/ee/3.2.2/libgcc.a(_divdi3.o)
 .debug_pubnames
                0x0000000000006730       0x1f /usr/local/ps2dev/ee/lib/gcc-lib/ee/3.2.2/libgcc.a(_moddi3.o)
 .debug_pubnames
                0x000000000000674f       0x20 /usr/local/ps2dev/ee/lib/gcc-lib/ee/3.2.2/libgcc.a(_udivdi3.o)
 .debug_pubnames
                0x000000000000676f       0x20 /usr/local/ps2dev/ee/lib/gcc-lib/ee/3.2.2/libgcc.a(_umoddi3.o)
 .debug_pubnames
                0x000000000000678f       0x1d /usr/local/ps2dev/ee/lib/gcc-lib/ee/3.2.2/libgcc.a(_sf_to_df.o)
 .debug_pubnames
                0x00000000000067ac       0x26 /usr/local/ps2dev/ee/lib/gcc-lib/ee/3.2.2/libgcc.a(_addsub_df.o)
 .debug_pubnames
                0x00000000000067d2       0x1c /usr/local/ps2dev/ee/lib/gcc-lib/ee/3.2.2/libgcc.a(_mul_df.o)
 .debug_pubnames
                0x00000000000067ee       0x1c /usr/local/ps2dev/ee/lib/gcc-lib/ee/3.2.2/libgcc.a(_div_df.o)
 .debug_pubnames
                0x000000000000680a       0x1c /usr/local/ps2dev/ee/lib/gcc-lib/ee/3.2.2/libgcc.a(_compare_df.o)
 .debug_pubnames
                0x0000000000006826       0x1d /usr/local/ps2dev/ee/lib/gcc-lib/ee/3.2.2/libgcc.a(_si_to_df.o)
 .debug_pubnames
                0x0000000000006843       0x1d /usr/local/ps2dev/ee/lib/gcc-lib/ee/3.2.2/libgcc.a(_df_to_si.o)
 .debug_pubnames
                0x0000000000006860       0x20 /usr/local/ps2dev/ee/lib/gcc-lib/ee/3.2.2/libgcc.a(_make_df.o)
 .debug_pubnames
                0x0000000000006880       0x1d /usr/local/ps2dev/ee/lib/gcc-lib/ee/3.2.2/libgcc.a(_df_to_sf.o)
 .debug_pubnames
                0x000000000000689d       0x22 /usr/local/ps2dev/ee/lib/gcc-lib/ee/3.2.2/libgcc.a(_thenan_df.o)
 .debug_pubnames
                0x00000000000068bf       0x1d /usr/local/ps2dev/ee/lib/gcc-lib/ee/3.2.2/libgcc.a(_df_to_usi.o)
 .debug_pubnames
                0x00000000000068dc       0x20 /usr/local/ps2dev/ee/lib/gcc-lib/ee/3.2.2/libgcc.a(_clz.o)
 .debug_pubnames
                0x00000000000068fc       0x23 /usr/local/ps2dev/ee/lib/gcc-lib/ee/3.2.2/libgcc.a(_fixunssfdi.o)
 .debug_pubnames
                0x000000000000691f       0x21 /usr/local/ps2dev/ee/lib/gcc-lib/ee/3.2.2/libgcc.a(_unpack_sf.o)
 .debug_pubnames
                0x0000000000006940       0x20 /usr/local/ps2dev/ee/lib/gcc-lib/ee/3.2.2/libgcc.a(_make_sf.o)
 .debug_pubnames
                0x0000000000006960       0x1f /usr/local/ps2dev/ee/lib/gcc-lib/ee/3.2.2/libgcc.a(_pack_df.o)
 .debug_pubnames
                0x000000000000697f       0x21 /usr/local/ps2dev/ee/lib/gcc-lib/ee/3.2.2/libgcc.a(_unpack_df.o)
 .debug_pubnames
                0x00000000000069a0       0x26 /usr/local/ps2dev/ee/lib/gcc-lib/ee/3.2.2/libgcc.a(_fpcmp_parts_df.o)
 .debug_pubnames
                0x00000000000069c6       0x1f /usr/local/ps2dev/ee/lib/gcc-lib/ee/3.2.2/libgcc.a(_pack_sf.o)

.debug_aranges  0x0000000000000000      0xaa0
 .debug_aranges
                0x0000000000000000       0x20 obj/pad.o
 .debug_aranges
                0x0000000000000020       0x20 obj/fntsys.o
 .debug_aranges
                0x0000000000000040       0x20 obj/renderman.o
 .debug_aranges
                0x0000000000000060       0x20 obj/menusys.o
 .debug_aranges
                0x0000000000000080       0x20 obj/OSDHistory.o
 .debug_aranges
                0x00000000000000a0       0x20 obj/system.o
 .debug_aranges
                0x00000000000000c0       0x20 obj/debug.o
 .debug_aranges
                0x00000000000000e0       0x20 obj/lang.o
 .debug_aranges
                0x0000000000000100       0x20 obj/config.o
 .debug_aranges
                0x0000000000000120       0x20 obj/hdd.o
 .debug_aranges
                0x0000000000000140       0x20 obj/dia.o
 .debug_aranges
                0x0000000000000160       0x20 obj/ioman.o
 .debug_aranges
                0x0000000000000180       0x20 obj/texcache.o
 .debug_aranges
                0x00000000000001a0       0x20 obj/themes.o
 .debug_aranges
                0x00000000000001c0       0x20 obj/supportbase.o
 .debug_aranges
                0x00000000000001e0       0x20 obj/usbsupport.o
 .debug_aranges
                0x0000000000000200       0x20 obj/ethsupport.o
 .debug_aranges
                0x0000000000000220       0x20 obj/hddsupport.o
 .debug_aranges
                0x0000000000000240       0x20 obj/appsupport.o
 .debug_aranges
                0x0000000000000260       0x20 obj/gui.o
 .debug_aranges
                0x0000000000000280       0x20 obj/textures.o
 .debug_aranges
                0x00000000000002a0       0x20 obj/opl.o
 .debug_aranges
                0x00000000000002c0       0x20 obj/atlas.o
 .debug_aranges
                0x00000000000002e0       0x20 obj/util.o
 .debug_aranges
                0x0000000000000300       0x20 /usr/local/ps2dev/ee/lib/gcc-lib/ee/3.2.2/../../../../ee/lib/libm.a(s_ceil.o)
 .debug_aranges
                0x0000000000000320       0x20 /usr/local/ps2dev/ee/lib/gcc-lib/ee/3.2.2/../../../../ee/lib/libm.a(s_floor.o)
 .debug_aranges
                0x0000000000000340       0x20 /usr/local/ps2dev/ee/lib/gcc-lib/ee/3.2.2/../../../../ee/lib/libm.a(w_pow.o)
 .debug_aranges
                0x0000000000000360       0x20 /usr/local/ps2dev/ee/lib/gcc-lib/ee/3.2.2/../../../../ee/lib/libm.a(e_pow.o)
 .debug_aranges
                0x0000000000000380       0x20 /usr/local/ps2dev/ee/lib/gcc-lib/ee/3.2.2/../../../../ee/lib/libm.a(e_sqrt.o)
 .debug_aranges
                0x00000000000003a0       0x20 /usr/local/ps2dev/ee/lib/gcc-lib/ee/3.2.2/../../../../ee/lib/libm.a(s_fabs.o)
 .debug_aranges
                0x00000000000003c0       0x20 /usr/local/ps2dev/ee/lib/gcc-lib/ee/3.2.2/../../../../ee/lib/libm.a(s_finite.o)
 .debug_aranges
                0x00000000000003e0       0x20 /usr/local/ps2dev/ee/lib/gcc-lib/ee/3.2.2/../../../../ee/lib/libm.a(s_isnan.o)
 .debug_aranges
                0x0000000000000400       0x20 /usr/local/ps2dev/ee/lib/gcc-lib/ee/3.2.2/../../../../ee/lib/libm.a(s_matherr.o)
 .debug_aranges
                0x0000000000000420       0x20 /usr/local/ps2dev/ee/lib/gcc-lib/ee/3.2.2/../../../../ee/lib/libm.a(s_rint.o)
 .debug_aranges
                0x0000000000000440       0x20 /usr/local/ps2dev/ee/lib/gcc-lib/ee/3.2.2/../../../../ee/lib/libm.a(s_scalbn.o)
 .debug_aranges
                0x0000000000000460       0x20 /usr/local/ps2dev/ee/lib/gcc-lib/ee/3.2.2/../../../../ee/lib/libm.a(s_copysign.o)
 .debug_aranges
                0x0000000000000480       0x20 /usr/local/ps2dev/ps2sdk/ports/lib/libfreetype.a(ftinit.o)
 .debug_aranges
                0x00000000000004a0       0x20 /usr/local/ps2dev/ps2sdk/ports/lib/libfreetype.a(ftbase.o)
 .debug_aranges
                0x00000000000004c0       0x20 /usr/local/ps2dev/ps2sdk/ports/lib/libfreetype.a(autohint.o)
 .debug_aranges
                0x00000000000004e0       0x20 /usr/local/ps2dev/ps2sdk/ports/lib/libfreetype.a(bdf.o)
 .debug_aranges
                0x0000000000000500       0x20 /usr/local/ps2dev/ps2sdk/ports/lib/libfreetype.a(cff.o)
 .debug_aranges
                0x0000000000000520       0x20 /usr/local/ps2dev/ps2sdk/ports/lib/libfreetype.a(type1cid.o)
 .debug_aranges
                0x0000000000000540       0x20 /usr/local/ps2dev/ps2sdk/ports/lib/libfreetype.a(pcf.o)
 .debug_aranges
                0x0000000000000560       0x20 /usr/local/ps2dev/ps2sdk/ports/lib/libfreetype.a(pfr.o)
 .debug_aranges
                0x0000000000000580       0x20 /usr/local/ps2dev/ps2sdk/ports/lib/libfreetype.a(psaux.o)
 .debug_aranges
                0x00000000000005a0       0x20 /usr/local/ps2dev/ps2sdk/ports/lib/libfreetype.a(pshinter.o)
 .debug_aranges
                0x00000000000005c0       0x20 /usr/local/ps2dev/ps2sdk/ports/lib/libfreetype.a(psnames.o)
 .debug_aranges
                0x00000000000005e0       0x20 /usr/local/ps2dev/ps2sdk/ports/lib/libfreetype.a(raster.o)
 .debug_aranges
                0x0000000000000600       0x20 /usr/local/ps2dev/ps2sdk/ports/lib/libfreetype.a(sfnt.o)
 .debug_aranges
                0x0000000000000620       0x20 /usr/local/ps2dev/ps2sdk/ports/lib/libfreetype.a(smooth.o)
 .debug_aranges
                0x0000000000000640       0x20 /usr/local/ps2dev/ps2sdk/ports/lib/libfreetype.a(truetype.o)
 .debug_aranges
                0x0000000000000660       0x20 /usr/local/ps2dev/ps2sdk/ports/lib/libfreetype.a(type1.o)
 .debug_aranges
                0x0000000000000680       0x20 /usr/local/ps2dev/ps2sdk/ports/lib/libfreetype.a(type42.o)
 .debug_aranges
                0x00000000000006a0       0x20 /usr/local/ps2dev/ps2sdk/ports/lib/libfreetype.a(winfnt.o)
 .debug_aranges
                0x00000000000006c0       0x20 /usr/local/ps2dev/ps2sdk/ports/lib/libfreetype.a(ftsystem.o)
 .debug_aranges
                0x00000000000006e0       0x20 /usr/local/ps2dev/ps2sdk/ports/lib/libfreetype.a(ftglyph.o)
 .debug_aranges
                0x0000000000000700       0x20 /usr/local/ps2dev/ps2sdk/ports/lib/libfreetype.a(ftgzip.o)
 .debug_aranges
                0x0000000000000720       0x20 /usr/local/ps2dev/ps2sdk/ports/lib/libfreetype.a(ftlzw.o)
 .debug_aranges
                0x0000000000000740       0x20 /usr/local/ps2dev/ee/lib/gcc-lib/ee/3.2.2/libgcc.a(_muldi3.o)
 .debug_aranges
                0x0000000000000760       0x20 /usr/local/ps2dev/ee/lib/gcc-lib/ee/3.2.2/libgcc.a(_floatdidf.o)
 .debug_aranges
                0x0000000000000780       0x20 /usr/local/ps2dev/ee/lib/gcc-lib/ee/3.2.2/libgcc.a(_floatdisf.o)
 .debug_aranges
                0x00000000000007a0       0x20 /usr/local/ps2dev/ee/lib/gcc-lib/ee/3.2.2/libgcc.a(_fixunsdfdi.o)
 .debug_aranges
                0x00000000000007c0       0x20 /usr/local/ps2dev/ee/lib/gcc-lib/ee/3.2.2/libgcc.a(_fixdfdi.o)
 .debug_aranges
                0x00000000000007e0       0x20 /usr/local/ps2dev/ee/lib/gcc-lib/ee/3.2.2/libgcc.a(_fixsfdi.o)
 .debug_aranges
                0x0000000000000800       0x20 /usr/local/ps2dev/ee/lib/gcc-lib/ee/3.2.2/libgcc.a(_divdi3.o)
 .debug_aranges
                0x0000000000000820       0x20 /usr/local/ps2dev/ee/lib/gcc-lib/ee/3.2.2/libgcc.a(_moddi3.o)
 .debug_aranges
                0x0000000000000840       0x20 /usr/local/ps2dev/ee/lib/gcc-lib/ee/3.2.2/libgcc.a(_udivdi3.o)
 .debug_aranges
                0x0000000000000860       0x20 /usr/local/ps2dev/ee/lib/gcc-lib/ee/3.2.2/libgcc.a(_umoddi3.o)
 .debug_aranges
                0x0000000000000880       0x20 /usr/local/ps2dev/ee/lib/gcc-lib/ee/3.2.2/libgcc.a(_sf_to_df.o)
 .debug_aranges
                0x00000000000008a0       0x20 /usr/local/ps2dev/ee/lib/gcc-lib/ee/3.2.2/libgcc.a(_addsub_df.o)
 .debug_aranges
                0x00000000000008c0       0x20 /usr/local/ps2dev/ee/lib/gcc-lib/ee/3.2.2/libgcc.a(_mul_df.o)
 .debug_aranges
                0x00000000000008e0       0x20 /usr/local/ps2dev/ee/lib/gcc-lib/ee/3.2.2/libgcc.a(_div_df.o)
 .debug_aranges
                0x0000000000000900       0x20 /usr/local/ps2dev/ee/lib/gcc-lib/ee/3.2.2/libgcc.a(_compare_df.o)
 .debug_aranges
                0x0000000000000920       0x20 /usr/local/ps2dev/ee/lib/gcc-lib/ee/3.2.2/libgcc.a(_si_to_df.o)
 .debug_aranges
                0x0000000000000940       0x20 /usr/local/ps2dev/ee/lib/gcc-lib/ee/3.2.2/libgcc.a(_df_to_si.o)
 .debug_aranges
                0x0000000000000960       0x20 /usr/local/ps2dev/ee/lib/gcc-lib/ee/3.2.2/libgcc.a(_make_df.o)
 .debug_aranges
                0x0000000000000980       0x20 /usr/local/ps2dev/ee/lib/gcc-lib/ee/3.2.2/libgcc.a(_df_to_sf.o)
 .debug_aranges
                0x00000000000009a0       0x20 /usr/local/ps2dev/ee/lib/gcc-lib/ee/3.2.2/libgcc.a(_df_to_usi.o)
 .debug_aranges
                0x00000000000009c0       0x20 /usr/local/ps2dev/ee/lib/gcc-lib/ee/3.2.2/libgcc.a(_fixunssfdi.o)
 .debug_aranges
                0x00000000000009e0       0x20 /usr/local/ps2dev/ee/lib/gcc-lib/ee/3.2.2/libgcc.a(_unpack_sf.o)
 .debug_aranges
                0x0000000000000a00       0x20 /usr/local/ps2dev/ee/lib/gcc-lib/ee/3.2.2/libgcc.a(_make_sf.o)
 .debug_aranges
                0x0000000000000a20       0x20 /usr/local/ps2dev/ee/lib/gcc-lib/ee/3.2.2/libgcc.a(_pack_df.o)
 .debug_aranges
                0x0000000000000a40       0x20 /usr/local/ps2dev/ee/lib/gcc-lib/ee/3.2.2/libgcc.a(_unpack_df.o)
 .debug_aranges
                0x0000000000000a60       0x20 /usr/local/ps2dev/ee/lib/gcc-lib/ee/3.2.2/libgcc.a(_fpcmp_parts_df.o)
 .debug_aranges
                0x0000000000000a80       0x20 /usr/local/ps2dev/ee/lib/gcc-lib/ee/3.2.2/libgcc.a(_pack_sf.o)

.debug_ranges   0x0000000000000000     0x3d10
 .debug_ranges  0x0000000000000000       0x28 obj/pad.o
 .debug_ranges  0x0000000000000028       0x70 obj/fntsys.o
 .debug_ranges  0x0000000000000098       0x18 obj/renderman.o
 .debug_ranges  0x00000000000000b0       0x80 obj/menusys.o
 .debug_ranges  0x0000000000000130       0xc8 obj/config.o
 .debug_ranges  0x00000000000001f8      0x140 obj/hdd.o
 .debug_ranges  0x0000000000000338       0xa0 obj/dia.o
 .debug_ranges  0x00000000000003d8       0x38 obj/ioman.o
 .debug_ranges  0x0000000000000410       0x18 obj/texcache.o
 .debug_ranges  0x0000000000000428      0x128 obj/themes.o
 .debug_ranges  0x0000000000000550       0x78 obj/supportbase.o
 .debug_ranges  0x00000000000005c8       0x48 obj/ethsupport.o
 .debug_ranges  0x0000000000000610       0xa0 obj/gui.o
 .debug_ranges  0x00000000000006b0       0x38 obj/textures.o
 .debug_ranges  0x00000000000006e8       0x78 obj/opl.o
 .debug_ranges  0x0000000000000760       0x40 obj/util.o
 .debug_ranges  0x00000000000007a0       0x18 /usr/local/ps2dev/ee/lib/gcc-lib/ee/3.2.2/../../../../ee/lib/libm.a(s_ceil.o)
 .debug_ranges  0x00000000000007b8       0x18 /usr/local/ps2dev/ee/lib/gcc-lib/ee/3.2.2/../../../../ee/lib/libm.a(s_floor.o)
 .debug_ranges  0x00000000000007d0      0x138 /usr/local/ps2dev/ee/lib/gcc-lib/ee/3.2.2/../../../../ee/lib/libm.a(e_pow.o)
 .debug_ranges  0x0000000000000908       0x18 /usr/local/ps2dev/ee/lib/gcc-lib/ee/3.2.2/../../../../ee/lib/libm.a(e_sqrt.o)
 .debug_ranges  0x0000000000000920       0x20 /usr/local/ps2dev/ee/lib/gcc-lib/ee/3.2.2/../../../../ee/lib/libm.a(s_fabs.o)
 .debug_ranges  0x0000000000000940       0x80 /usr/local/ps2dev/ee/lib/gcc-lib/ee/3.2.2/../../../../ee/lib/libm.a(s_rint.o)
 .debug_ranges  0x00000000000009c0       0x38 /usr/local/ps2dev/ee/lib/gcc-lib/ee/3.2.2/../../../../ee/lib/libm.a(s_scalbn.o)
 .debug_ranges  0x00000000000009f8       0x18 /usr/local/ps2dev/ee/lib/gcc-lib/ee/3.2.2/../../../../ee/lib/libm.a(s_copysign.o)
 .debug_ranges  0x0000000000000a10      0x520 /usr/local/ps2dev/ps2sdk/ports/lib/libfreetype.a(ftbase.o)
 .debug_ranges  0x0000000000000f30      0x580 /usr/local/ps2dev/ps2sdk/ports/lib/libfreetype.a(autohint.o)
 .debug_ranges  0x00000000000014b0       0xb8 /usr/local/ps2dev/ps2sdk/ports/lib/libfreetype.a(bdf.o)
 .debug_ranges  0x0000000000001568      0x500 /usr/local/ps2dev/ps2sdk/ports/lib/libfreetype.a(cff.o)
 .debug_ranges  0x0000000000001a68      0x1f0 /usr/local/ps2dev/ps2sdk/ports/lib/libfreetype.a(type1cid.o)
 .debug_ranges  0x0000000000001c58      0x140 /usr/local/ps2dev/ps2sdk/ports/lib/libfreetype.a(pcf.o)
 .debug_ranges  0x0000000000001d98      0x3c0 /usr/local/ps2dev/ps2sdk/ports/lib/libfreetype.a(pfr.o)
 .debug_ranges  0x0000000000002158      0x198 /usr/local/ps2dev/ps2sdk/ports/lib/libfreetype.a(psaux.o)
 .debug_ranges  0x00000000000022f0      0x548 /usr/local/ps2dev/ps2sdk/ports/lib/libfreetype.a(pshinter.o)
 .debug_ranges  0x0000000000002838       0x98 /usr/local/ps2dev/ps2sdk/ports/lib/libfreetype.a(psnames.o)
 .debug_ranges  0x00000000000028d0       0xa8 /usr/local/ps2dev/ps2sdk/ports/lib/libfreetype.a(raster.o)
 .debug_ranges  0x0000000000002978      0x5c8 /usr/local/ps2dev/ps2sdk/ports/lib/libfreetype.a(sfnt.o)
 .debug_ranges  0x0000000000002f40       0xd0 /usr/local/ps2dev/ps2sdk/ports/lib/libfreetype.a(smooth.o)
 .debug_ranges  0x0000000000003010      0x1a0 /usr/local/ps2dev/ps2sdk/ports/lib/libfreetype.a(truetype.o)
 .debug_ranges  0x00000000000031b0      0x3a8 /usr/local/ps2dev/ps2sdk/ports/lib/libfreetype.a(type1.o)
 .debug_ranges  0x0000000000003558      0x130 /usr/local/ps2dev/ps2sdk/ports/lib/libfreetype.a(type42.o)
 .debug_ranges  0x0000000000003688       0xa0 /usr/local/ps2dev/ps2sdk/ports/lib/libfreetype.a(winfnt.o)
 .debug_ranges  0x0000000000003728       0xa0 /usr/local/ps2dev/ps2sdk/ports/lib/libfreetype.a(ftgzip.o)
 .debug_ranges  0x00000000000037c8       0x38 /usr/local/ps2dev/ps2sdk/ports/lib/libfreetype.a(ftlzw.o)
 .debug_ranges  0x0000000000003800       0x28 /usr/local/ps2dev/ee/lib/gcc-lib/ee/3.2.2/libgcc.a(_muldi3.o)
 .debug_ranges  0x0000000000003828      0x100 /usr/local/ps2dev/ee/lib/gcc-lib/ee/3.2.2/libgcc.a(_divdi3.o)
 .debug_ranges  0x0000000000003928      0x100 /usr/local/ps2dev/ee/lib/gcc-lib/ee/3.2.2/libgcc.a(_moddi3.o)
 .debug_ranges  0x0000000000003a28      0x100 /usr/local/ps2dev/ee/lib/gcc-lib/ee/3.2.2/libgcc.a(_udivdi3.o)
 .debug_ranges  0x0000000000003b28      0x100 /usr/local/ps2dev/ee/lib/gcc-lib/ee/3.2.2/libgcc.a(_umoddi3.o)
 .debug_ranges  0x0000000000003c28       0x18 /usr/local/ps2dev/ee/lib/gcc-lib/ee/3.2.2/libgcc.a(_addsub_df.o)
 .debug_ranges  0x0000000000003c40       0xa0 /usr/local/ps2dev/ee/lib/gcc-lib/ee/3.2.2/libgcc.a(_mul_df.o)
 .debug_ranges  0x0000000000003ce0       0x18 /usr/local/ps2dev/ee/lib/gcc-lib/ee/3.2.2/libgcc.a(_pack_df.o)
 .debug_ranges  0x0000000000003cf8       0x18 /usr/local/ps2dev/ee/lib/gcc-lib/ee/3.2.2/libgcc.a(_pack_sf.o)

.debug_str      0x0000000000000000    0x21a25
 .debug_str     0x0000000000000000     0x1a64 obj/pad.o
                                       0x1d6a (size before relaxing)
 .debug_str     0x0000000000001a64     0x1a53 obj/fntsys.o
                                       0x37ca (size before relaxing)
 .debug_str     0x00000000000034b7      0x284 obj/renderman.o
                                       0x1ee6 (size before relaxing)
 .debug_str     0x000000000000373b     0x12f9 obj/menusys.o
                                       0x3021 (size before relaxing)
 .debug_str     0x0000000000004a34      0x1bc obj/OSDHistory.o
                                       0x10a0 (size before relaxing)
 .debug_str     0x0000000000004bf0      0x3ad obj/system.o
                                       0x2069 (size before relaxing)
 .debug_str     0x0000000000004f9d       0x6f obj/debug.o
                                       0x1c55 (size before relaxing)
 .debug_str     0x000000000000500c      0x110 obj/lang.o
                                       0x266d (size before relaxing)
 .debug_str     0x000000000000511c      0x217 obj/config.o
                                       0x1e06 (size before relaxing)
 .debug_str     0x0000000000005333      0x4ee obj/hdd.o
                                       0x21a2 (size before relaxing)
 .debug_str     0x0000000000005821       0x49 obj/dialogs.o
                                       0x296e (size before relaxing)
 .debug_str     0x000000000000586a      0x2d7 obj/dia.o
                                       0x2fb5 (size before relaxing)
 .debug_str     0x0000000000005b41      0x1ec obj/ioman.o
                                        0x8b9 (size before relaxing)
 .debug_str     0x0000000000005d2d       0xb5 obj/texcache.o
                                       0x208a (size before relaxing)
 .debug_str     0x0000000000005de2      0x47f obj/themes.o
                                       0x31fd (size before relaxing)
 .debug_str     0x0000000000006261      0x192 obj/supportbase.o
                                       0x2822 (size before relaxing)
 .debug_str     0x00000000000063f3      0x22d obj/usbsupport.o
                                       0x2f37 (size before relaxing)
 .debug_str     0x0000000000006620      0x200 obj/ethsupport.o
                                       0x2f93 (size before relaxing)
 .debug_str     0x0000000000006820      0x229 obj/hddsupport.o
                                       0x322c (size before relaxing)
 .debug_str     0x0000000000006a49      0x13a obj/appsupport.o
                                       0x2fd5 (size before relaxing)
 .debug_str     0x0000000000006b83      0x512 obj/gui.o
                                       0x3309 (size before relaxing)
 .debug_str     0x0000000000007095     0x10ad obj/textures.o
                                       0x2e6e (size before relaxing)
 .debug_str     0x0000000000008142      0x25f obj/opl.o
                                       0x3333 (size before relaxing)
 .debug_str     0x00000000000083a1       0x70 obj/atlas.o
                                        0xa12 (size before relaxing)
 .debug_str     0x0000000000008411      0x2b7 obj/util.o
                                        0xd47 (size before relaxing)
 .debug_str     0x00000000000086c8       0xba /usr/local/ps2dev/ee/lib/gcc-lib/ee/3.2.2/../../../../ee/lib/libm.a(s_ceil.o)
                                        0x44b (size before relaxing)
 .debug_str     0x0000000000008782       0x30 /usr/local/ps2dev/ee/lib/gcc-lib/ee/3.2.2/../../../../ee/lib/libm.a(s_floor.o)
                                        0x44d (size before relaxing)
 .debug_str     0x00000000000087b2       0x43 /usr/local/ps2dev/ee/lib/gcc-lib/ee/3.2.2/../../../../ee/lib/libm.a(w_pow.o)
                                        0x451 (size before relaxing)
 .debug_str     0x00000000000087f5       0x8d /usr/local/ps2dev/ee/lib/gcc-lib/ee/3.2.2/../../../../ee/lib/libm.a(e_pow.o)
                                        0x4aa (size before relaxing)
 .debug_str     0x0000000000008882       0x38 /usr/local/ps2dev/ee/lib/gcc-lib/ee/3.2.2/../../../../ee/lib/libm.a(e_sqrt.o)
                                        0x45a (size before relaxing)
 .debug_str     0x00000000000088ba       0x2e /usr/local/ps2dev/ee/lib/gcc-lib/ee/3.2.2/../../../../ee/lib/libm.a(s_fabs.o)
                                        0x44b (size before relaxing)
 .debug_str     0x00000000000088e8       0x7f /usr/local/ps2dev/ee/lib/gcc-lib/ee/3.2.2/../../../../ee/lib/libm.a(s_finite.o)
                                        0x449 (size before relaxing)
 .debug_str     0x0000000000008967       0x2d /usr/local/ps2dev/ee/lib/gcc-lib/ee/3.2.2/../../../../ee/lib/libm.a(s_infconst.o)
                                        0x446 (size before relaxing)
 .debug_str     0x0000000000008994       0x30 /usr/local/ps2dev/ee/lib/gcc-lib/ee/3.2.2/../../../../ee/lib/libm.a(s_isnan.o)
                                        0x443 (size before relaxing)
 .debug_str     0x00000000000089c4       0x2e /usr/local/ps2dev/ee/lib/gcc-lib/ee/3.2.2/../../../../ee/lib/libm.a(s_lib_ver.o)
                                        0x44e (size before relaxing)
 .debug_str     0x00000000000089f2       0x36 /usr/local/ps2dev/ee/lib/gcc-lib/ee/3.2.2/../../../../ee/lib/libm.a(s_matherr.o)
                                        0x446 (size before relaxing)
 .debug_str     0x0000000000008a28       0x36 /usr/local/ps2dev/ee/lib/gcc-lib/ee/3.2.2/../../../../ee/lib/libm.a(s_rint.o)
                                        0x45a (size before relaxing)
 .debug_str     0x0000000000008a5e       0x41 /usr/local/ps2dev/ee/lib/gcc-lib/ee/3.2.2/../../../../ee/lib/libm.a(s_scalbn.o)
                                        0x46a (size before relaxing)
 .debug_str     0x0000000000008a9f       0x38 /usr/local/ps2dev/ee/lib/gcc-lib/ee/3.2.2/../../../../ee/lib/libm.a(s_copysign.o)
                                        0x452 (size before relaxing)
 .debug_str     0x0000000000008ad7      0xcca /usr/local/ps2dev/ps2sdk/ports/lib/libfreetype.a(ftinit.o)
                                       0x2a89 (size before relaxing)
 .debug_str     0x00000000000097a1     0x2eac /usr/local/ps2dev/ps2sdk/ports/lib/libfreetype.a(ftbase.o)
                                       0x5cbc (size before relaxing)
 .debug_str     0x000000000000c64d     0x13c5 /usr/local/ps2dev/ps2sdk/ports/lib/libfreetype.a(autohint.o)
                                       0x3ede (size before relaxing)
 .debug_str     0x000000000000da12     0x10db /usr/local/ps2dev/ps2sdk/ports/lib/libfreetype.a(bdf.o)
                                       0x3cfd (size before relaxing)
 .debug_str     0x000000000000eaed     0x227c /usr/local/ps2dev/ps2sdk/ports/lib/libfreetype.a(cff.o)
                                       0x6cff (size before relaxing)
 .debug_str     0x0000000000010d69     0x133e /usr/local/ps2dev/ps2sdk/ports/lib/libfreetype.a(type1cid.o)
                                       0x4fe4 (size before relaxing)
 .debug_str     0x00000000000120a7      0xee8 /usr/local/ps2dev/ps2sdk/ports/lib/libfreetype.a(pcf.o)
                                       0x3c86 (size before relaxing)
 .debug_str     0x0000000000012f8f     0x19bb /usr/local/ps2dev/ps2sdk/ports/lib/libfreetype.a(pfr.o)
                                       0x472c (size before relaxing)
 .debug_str     0x000000000001494a     0x10dc /usr/local/ps2dev/ps2sdk/ports/lib/libfreetype.a(psaux.o)
                                       0x5226 (size before relaxing)
 .debug_str     0x0000000000015a26     0x17e0 /usr/local/ps2dev/ps2sdk/ports/lib/libfreetype.a(pshinter.o)
                                       0x4c01 (size before relaxing)
 .debug_str     0x0000000000017206      0xb44 /usr/local/ps2dev/ps2sdk/ports/lib/libfreetype.a(psnames.o)
                                       0x361d (size before relaxing)
 .debug_str     0x0000000000017d4a     0x105e /usr/local/ps2dev/ps2sdk/ports/lib/libfreetype.a(raster.o)
                                       0x3abb (size before relaxing)
 .debug_str     0x0000000000018da8     0x15ea /usr/local/ps2dev/ps2sdk/ports/lib/libfreetype.a(sfnt.o)
                                       0x608f (size before relaxing)
 .debug_str     0x000000000001a392      0xd5c /usr/local/ps2dev/ps2sdk/ports/lib/libfreetype.a(smooth.o)
                                       0x37bf (size before relaxing)
 .debug_str     0x000000000001b0ee     0x1520 /usr/local/ps2dev/ps2sdk/ports/lib/libfreetype.a(truetype.o)
                                       0x5d25 (size before relaxing)
 .debug_str     0x000000000001c60e      0xebe /usr/local/ps2dev/ps2sdk/ports/lib/libfreetype.a(type1.o)
                                       0x54cf (size before relaxing)
 .debug_str     0x000000000001d4cc      0xcbe /usr/local/ps2dev/ps2sdk/ports/lib/libfreetype.a(type42.o)
                                       0x503b (size before relaxing)
 .debug_str     0x000000000001e18a      0x4b8 /usr/local/ps2dev/ps2sdk/ports/lib/libfreetype.a(winfnt.o)
                                       0x389e (size before relaxing)
 .debug_str     0x000000000001e642       0x8c /usr/local/ps2dev/ps2sdk/ports/lib/libfreetype.a(ftsystem.o)
                                       0x1d63 (size before relaxing)
 .debug_str     0x000000000001e6ce      0x240 /usr/local/ps2dev/ps2sdk/ports/lib/libfreetype.a(ftglyph.o)
                                       0x2ba8 (size before relaxing)
 .debug_str     0x000000000001e90e      0xd79 /usr/local/ps2dev/ps2sdk/ports/lib/libfreetype.a(ftgzip.o)
                                       0x3906 (size before relaxing)
 .debug_str     0x000000000001f687      0xb08 /usr/local/ps2dev/ps2sdk/ports/lib/libfreetype.a(ftlzw.o)
                                       0x3594 (size before relaxing)
 .debug_str     0x000000000002018f      0x664 /usr/local/ps2dev/ee/lib/gcc-lib/ee/3.2.2/libgcc.a(_muldi3.o)
                                        0x798 (size before relaxing)
 .debug_str     0x00000000000207f3        0xc /usr/local/ps2dev/ee/lib/gcc-lib/ee/3.2.2/libgcc.a(_floatdidf.o)
                                        0x79b (size before relaxing)
 .debug_str     0x00000000000207ff        0xc /usr/local/ps2dev/ee/lib/gcc-lib/ee/3.2.2/libgcc.a(_floatdisf.o)
                                        0x79b (size before relaxing)
 .debug_str     0x000000000002080b        0xd /usr/local/ps2dev/ee/lib/gcc-lib/ee/3.2.2/libgcc.a(_fixunsdfdi.o)
                                        0x79c (size before relaxing)
 .debug_str     0x0000000000020818        0xa /usr/local/ps2dev/ee/lib/gcc-lib/ee/3.2.2/libgcc.a(_fixdfdi.o)
                                        0x799 (size before relaxing)
 .debug_str     0x0000000000020822        0xa /usr/local/ps2dev/ee/lib/gcc-lib/ee/3.2.2/libgcc.a(_fixsfdi.o)
                                        0x799 (size before relaxing)
 .debug_str     0x000000000002082c       0x4c /usr/local/ps2dev/ee/lib/gcc-lib/ee/3.2.2/libgcc.a(_divdi3.o)
                                        0x7db (size before relaxing)
 .debug_str     0x0000000000020878        0x9 /usr/local/ps2dev/ee/lib/gcc-lib/ee/3.2.2/libgcc.a(_moddi3.o)
                                        0x7db (size before relaxing)
 .debug_str     0x0000000000020881        0xa /usr/local/ps2dev/ee/lib/gcc-lib/ee/3.2.2/libgcc.a(_udivdi3.o)
                                        0x7d3 (size before relaxing)
 .debug_str     0x000000000002088b        0xa /usr/local/ps2dev/ee/lib/gcc-lib/ee/3.2.2/libgcc.a(_umoddi3.o)
                                        0x7d3 (size before relaxing)
 .debug_str     0x0000000000020895       0xb3 /usr/local/ps2dev/ee/lib/gcc-lib/ee/3.2.2/libgcc.a(_sf_to_df.o)
                                        0x7ea (size before relaxing)
 .debug_str     0x0000000000020948       0x7b /usr/local/ps2dev/ee/lib/gcc-lib/ee/3.2.2/libgcc.a(_addsub_df.o)
                                        0x85a (size before relaxing)
 .debug_str     0x00000000000209c3       0x3d /usr/local/ps2dev/ee/lib/gcc-lib/ee/3.2.2/libgcc.a(_mul_df.o)
                                        0x844 (size before relaxing)
 .debug_str     0x0000000000020a00       0x1c /usr/local/ps2dev/ee/lib/gcc-lib/ee/3.2.2/libgcc.a(_div_df.o)
                                        0x834 (size before relaxing)
 .debug_str     0x0000000000020a1c        0x6 /usr/local/ps2dev/ee/lib/gcc-lib/ee/3.2.2/libgcc.a(_compare_df.o)
                                        0x7f5 (size before relaxing)
 .debug_str     0x0000000000020a22        0x7 /usr/local/ps2dev/ee/lib/gcc-lib/ee/3.2.2/libgcc.a(_si_to_df.o)
                                        0x7f0 (size before relaxing)
 .debug_str     0x0000000000020a29        0x7 /usr/local/ps2dev/ee/lib/gcc-lib/ee/3.2.2/libgcc.a(_df_to_si.o)
                                        0x803 (size before relaxing)
 .debug_str     0x0000000000020a30        0xa /usr/local/ps2dev/ee/lib/gcc-lib/ee/3.2.2/libgcc.a(_make_df.o)
                                        0x7f2 (size before relaxing)
 .debug_str     0x0000000000020a3a        0xe /usr/local/ps2dev/ee/lib/gcc-lib/ee/3.2.2/libgcc.a(_df_to_sf.o)
                                        0x7f7 (size before relaxing)
 .debug_str     0x0000000000020a48      0x7e3 /usr/local/ps2dev/ee/lib/gcc-lib/ee/3.2.2/libgcc.a(_thenan_df.o)
 .debug_str     0x000000000002122b        0x7 /usr/local/ps2dev/ee/lib/gcc-lib/ee/3.2.2/libgcc.a(_df_to_usi.o)
                                        0x803 (size before relaxing)
 .debug_str     0x0000000000021232      0x799 /usr/local/ps2dev/ee/lib/gcc-lib/ee/3.2.2/libgcc.a(_clz.o)
 .debug_str     0x00000000000219cb       0x18 /usr/local/ps2dev/ee/lib/gcc-lib/ee/3.2.2/libgcc.a(_fixunssfdi.o)
                                        0x7a7 (size before relaxing)
 .debug_str     0x00000000000219e3        0xb /usr/local/ps2dev/ee/lib/gcc-lib/ee/3.2.2/libgcc.a(_unpack_sf.o)
                                        0x7e8 (size before relaxing)
 .debug_str     0x00000000000219ee        0xa /usr/local/ps2dev/ee/lib/gcc-lib/ee/3.2.2/libgcc.a(_make_sf.o)
                                        0x7ec (size before relaxing)
 .debug_str     0x00000000000219f8        0x9 /usr/local/ps2dev/ee/lib/gcc-lib/ee/3.2.2/libgcc.a(_pack_df.o)
                                        0x805 (size before relaxing)
 .debug_str     0x0000000000021a01        0xb /usr/local/ps2dev/ee/lib/gcc-lib/ee/3.2.2/libgcc.a(_unpack_df.o)
                                        0x7ee (size before relaxing)
 .debug_str     0x0000000000021a0c       0x10 /usr/local/ps2dev/ee/lib/gcc-lib/ee/3.2.2/libgcc.a(_fpcmp_parts_df.o)
                                        0x806 (size before relaxing)
 .debug_str     0x0000000000021a1c        0x9 /usr/local/ps2dev/ee/lib/gcc-lib/ee/3.2.2/libgcc.a(_pack_sf.o)
                                        0x7ff (size before relaxing)
